///////////////////////////////////////////////////////////////////////////////
//
// IAR ANSI C/C++ Compiler V7.10.1.6676/W32 for ARM       25/Feb/2020  17:00:59
// Copyright 1999-2014 IAR Systems AB.
//
//    Cpu mode     =  thumb
//    Endian       =  little
//    Source file  =  
//        E:\code\Robin_Nano_SVN\branches\robin_nano_tft35_¼ÎºÌÈýÎ¬\mksRobin_Nano_code\Middlewares\Ucgui\GUI\Widget\MENU_Popup.c
//    Command line =  
//        E:\code\Robin_Nano_SVN\branches\robin_nano_tft35_¼ÎºÌÈýÎ¬\mksRobin_Nano_code\Middlewares\Ucgui\GUI\Widget\MENU_Popup.c
//        -D USE_HAL_DRIVER -D STM32F103xE -D STM32F10X_HD -D USE_HAL_LIB -D
//        MKS_ROBIN_NANO -D TFT35 -lC
//        E:\code\Robin_Nano_SVN\branches\robin_nano_tft35_¼ÎºÌÈýÎ¬\mksRobin_Nano_code\EWARM\mksRobin2/List\
//        -lA
//        E:\code\Robin_Nano_SVN\branches\robin_nano_tft35_¼ÎºÌÈýÎ¬\mksRobin_Nano_code\EWARM\mksRobin2/List\
//        --diag_suppress Pa050 -o
//        E:\code\Robin_Nano_SVN\branches\robin_nano_tft35_¼ÎºÌÈýÎ¬\mksRobin_Nano_code\EWARM\mksRobin2/Obj\
//        --no_unroll --no_inline --no_tbaa --no_scheduling --debug
//        --endian=little --cpu=Cortex-M3 -e --char_is_signed --fpu=None
//        --dlib_config "C:\Program Files (x86)\IAR Systems\Embedded Workbench
//        7.0\arm\INC\c\DLib_Config_Full.h" -I
//        E:\code\Robin_Nano_SVN\branches\robin_nano_tft35_¼ÎºÌÈýÎ¬\mksRobin_Nano_code\EWARM/../Inc\
//        -I
//        E:\code\Robin_Nano_SVN\branches\robin_nano_tft35_¼ÎºÌÈýÎ¬\mksRobin_Nano_code\EWARM/../Src\
//        -I
//        E:\code\Robin_Nano_SVN\branches\robin_nano_tft35_¼ÎºÌÈýÎ¬\mksRobin_Nano_code\EWARM/../Drivers/STM32F1xx_HAL_Driver/Inc\
//        -I
//        E:\code\Robin_Nano_SVN\branches\robin_nano_tft35_¼ÎºÌÈýÎ¬\mksRobin_Nano_code\EWARM/../Drivers/STM32F1xx_HAL_Driver/Inc/Legacy\
//        -I
//        E:\code\Robin_Nano_SVN\branches\robin_nano_tft35_¼ÎºÌÈýÎ¬\mksRobin_Nano_code\EWARM/../Middlewares/Third_Party/FatFs/src/drivers\
//        -I
//        E:\code\Robin_Nano_SVN\branches\robin_nano_tft35_¼ÎºÌÈýÎ¬\mksRobin_Nano_code\EWARM/../Middlewares/ST/STM32_USB_Host_Library/Core/Inc\
//        -I
//        E:\code\Robin_Nano_SVN\branches\robin_nano_tft35_¼ÎºÌÈýÎ¬\mksRobin_Nano_code\EWARM/../Middlewares/ST/STM32_USB_Host_Library/Class/MSC/Inc\
//        -I
//        E:\code\Robin_Nano_SVN\branches\robin_nano_tft35_¼ÎºÌÈýÎ¬\mksRobin_Nano_code\EWARM/../Drivers/CMSIS/Device/ST/STM32F1xx/Include\
//        -I
//        E:\code\Robin_Nano_SVN\branches\robin_nano_tft35_¼ÎºÌÈýÎ¬\mksRobin_Nano_code\EWARM/../Middlewares/Third_Party/FatFs/src\
//        -I
//        E:\code\Robin_Nano_SVN\branches\robin_nano_tft35_¼ÎºÌÈýÎ¬\mksRobin_Nano_code\EWARM/../Middlewares/Third_Party/Marlin\
//        -I
//        E:\code\Robin_Nano_SVN\branches\robin_nano_tft35_¼ÎºÌÈýÎ¬\mksRobin_Nano_code\EWARM/../Drivers/CMSIS/Include\
//        -I
//        E:\code\Robin_Nano_SVN\branches\robin_nano_tft35_¼ÎºÌÈýÎ¬\mksRobin_Nano_code\EWARM/../Drivers/BSP/variant\
//        -I
//        E:\code\Robin_Nano_SVN\branches\robin_nano_tft35_¼ÎºÌÈýÎ¬\mksRobin_Nano_code\EWARM/../Drivers/BSP/Components/at24cxx\
//        -I
//        E:\code\Robin_Nano_SVN\branches\robin_nano_tft35_¼ÎºÌÈýÎ¬\mksRobin_Nano_code\EWARM/../Drivers/BSP/Components/w25qxx\
//        -I
//        E:\code\Robin_Nano_SVN\branches\robin_nano_tft35_¼ÎºÌÈýÎ¬\mksRobin_Nano_code\EWARM/../Drivers/BSP/Components/lcd\
//        -I
//        E:\code\Robin_Nano_SVN\branches\robin_nano_tft35_¼ÎºÌÈýÎ¬\mksRobin_Nano_code\EWARM/../Drivers/STM32F10x_StdPeriph_Driver/inc\
//        -I
//        E:\code\Robin_Nano_SVN\branches\robin_nano_tft35_¼ÎºÌÈýÎ¬\mksRobin_Nano_code\EWARM/../Drivers/libstmf4/include\
//        -I
//        E:\code\Robin_Nano_SVN\branches\robin_nano_tft35_¼ÎºÌÈýÎ¬\mksRobin_Nano_code\EWARM/../Middlewares/arduino/stm32/cores/arduino\
//        -I
//        E:\code\Robin_Nano_SVN\branches\robin_nano_tft35_¼ÎºÌÈýÎ¬\mksRobin_Nano_code\EWARM/../Middlewares/Ucgui\
//        -I
//        E:\code\Robin_Nano_SVN\branches\robin_nano_tft35_¼ÎºÌÈýÎ¬\mksRobin_Nano_code\EWARM/../Middlewares/Ucgui/GUI/ConvertColor\
//        -I
//        E:\code\Robin_Nano_SVN\branches\robin_nano_tft35_¼ÎºÌÈýÎ¬\mksRobin_Nano_code\EWARM/../Middlewares/Ucgui/GUI/ConvertMono\
//        -I
//        E:\code\Robin_Nano_SVN\branches\robin_nano_tft35_¼ÎºÌÈýÎ¬\mksRobin_Nano_code\EWARM/../Middlewares/Ucgui/GUI/Core\
//        -I
//        E:\code\Robin_Nano_SVN\branches\robin_nano_tft35_¼ÎºÌÈýÎ¬\mksRobin_Nano_code\EWARM/../Middlewares/Ucgui/GUI/Font\
//        -I
//        E:\code\Robin_Nano_SVN\branches\robin_nano_tft35_¼ÎºÌÈýÎ¬\mksRobin_Nano_code\EWARM/../Middlewares/Ucgui/AntiAlias\
//        -I
//        E:\code\Robin_Nano_SVN\branches\robin_nano_tft35_¼ÎºÌÈýÎ¬\mksRobin_Nano_code\EWARM/../Middlewares/Ucgui/GUI/GUIDemo\
//        -I
//        E:\code\Robin_Nano_SVN\branches\robin_nano_tft35_¼ÎºÌÈýÎ¬\mksRobin_Nano_code\EWARM/../Middlewares/Ucgui/GUI/LCDDriver\
//        -I
//        E:\code\Robin_Nano_SVN\branches\robin_nano_tft35_¼ÎºÌÈýÎ¬\mksRobin_Nano_code\EWARM/../Middlewares/Ucgui/GUI/MemDev\
//        -I
//        E:\code\Robin_Nano_SVN\branches\robin_nano_tft35_¼ÎºÌÈýÎ¬\mksRobin_Nano_code\EWARM/../Middlewares/Ucgui/GUI/MultiLayer\
//        -I
//        E:\code\Robin_Nano_SVN\branches\robin_nano_tft35_¼ÎºÌÈýÎ¬\mksRobin_Nano_code\EWARM/../Middlewares/Ucgui/GUI/Widget\
//        -I
//        E:\code\Robin_Nano_SVN\branches\robin_nano_tft35_¼ÎºÌÈýÎ¬\mksRobin_Nano_code\EWARM/../Middlewares/Ucgui/GUI/WM\
//        -I
//        E:\code\Robin_Nano_SVN\branches\robin_nano_tft35_¼ÎºÌÈýÎ¬\mksRobin_Nano_code\EWARM/../Middlewares/Ucgui/GUI_X\
//        -I
//        E:\code\Robin_Nano_SVN\branches\robin_nano_tft35_¼ÎºÌÈýÎ¬\mksRobin_Nano_code\EWARM/../Middlewares/Ucgui/Config\
//        -I
//        E:\code\Robin_Nano_SVN\branches\robin_nano_tft35_¼ÎºÌÈýÎ¬\mksRobin_Nano_code\EWARM/../User/ui\
//        -I
//        E:\code\Robin_Nano_SVN\branches\robin_nano_tft35_¼ÎºÌÈýÎ¬\mksRobin_Nano_code\EWARM/../User/ui/Multi_language\
//        -I
//        E:\code\Robin_Nano_SVN\branches\robin_nano_tft35_¼ÎºÌÈýÎ¬\mksRobin_Nano_code\EWARM/../User/ui/QRENCODE\
//        -Om --use_c++_inline -I "C:\Program Files (x86)\IAR Systems\Embedded
//        Workbench 7.0\arm\CMSIS\Include\"
//    List file    =  
//        E:\code\Robin_Nano_SVN\branches\robin_nano_tft35_¼ÎºÌÈýÎ¬\mksRobin_Nano_code\EWARM\mksRobin2/List\MENU_Popup.s
//
///////////////////////////////////////////////////////////////////////////////

        RTMODEL "__SystemLibrary", "DLib"
        AAPCS BASE,INTERWORK
        PRESERVE8
        REQUIRE8

        #define SHT_PROGBITS 0x1

        EXTERN GUI_ALLOC_h2p
        EXTERN MENU_SetOwner
        EXTERN MENU__SendMenuMessage
        EXTERN WM_AttachWindowAt
        EXTERN WM_GetDesktopWindow
        EXTERN WM_GetWindowOrgX
        EXTERN WM_GetWindowOrgY

        PUBLIC MENU_Popup
        
          CFI Names cfiNames0
          CFI StackFrame CFA R13 DATA
          CFI Resource R0:32, R1:32, R2:32, R3:32, R4:32, R5:32, R6:32, R7:32
          CFI Resource R8:32, R9:32, R10:32, R11:32, R12:32, R13:32, R14:32
          CFI EndNames cfiNames0
        
          CFI Common cfiCommon0 Using cfiNames0
          CFI CodeAlign 2
          CFI DataAlign 4
          CFI ReturnAddress R14 CODE
          CFI CFA R13+0
          CFI R0 Undefined
          CFI R1 Undefined
          CFI R2 Undefined
          CFI R3 Undefined
          CFI R4 SameValue
          CFI R5 SameValue
          CFI R6 SameValue
          CFI R7 SameValue
          CFI R8 SameValue
          CFI R9 SameValue
          CFI R10 SameValue
          CFI R11 SameValue
          CFI R12 Undefined
          CFI R14 SameValue
          CFI EndCommon cfiCommon0
        
// E:\code\Robin_Nano_SVN\branches\robin_nano_tft35_¼ÎºÌÈýÎ¬\mksRobin_Nano_code\Middlewares\Ucgui\GUI\Widget\MENU_Popup.c
//    1 /*
//    2 *********************************************************************************************************
//    3 *                                                uC/GUI
//    4 *                        Universal graphic software for embedded applications
//    5 *
//    6 *                       (c) Copyright 2002, Micrium Inc., Weston, FL
//    7 *                       (c) Copyright 2002, SEGGER Microcontroller Systeme GmbH
//    8 *
//    9 *              µC/GUI is protected by international copyright laws. Knowledge of the
//   10 *              source code may not be used to write a similar product. This file may
//   11 *              only be used in accordance with a license and should not be redistributed
//   12 *              in any way. We appreciate your understanding and fairness.
//   13 *
//   14 ----------------------------------------------------------------------
//   15 File        : MENU_Popup.c
//   16 Purpose     : Implementation of menu widget
//   17 ---------------------------END-OF-HEADER------------------------------
//   18 */
//   19 
//   20 #include "MENU.h"
//   21 #include "MENU_Private.h"
//   22 
//   23 #if GUI_WINSUPPORT
//   24 
//   25 /*********************************************************************
//   26 *
//   27 *       Public code
//   28 *
//   29 **********************************************************************
//   30 */
//   31 /*********************************************************************
//   32 *
//   33 *       MENU_Popup
//   34 */

        SECTION `.text`:CODE:NOROOT(1)
          CFI Block cfiBlock0 Using cfiCommon0
          CFI Function MENU_Popup
        THUMB
//   35 void MENU_Popup(MENU_Handle hObj, WM_HWIN hDestWin, int x, int y, int xSize, int ySize, int Flags) {
MENU_Popup:
        PUSH     {R3-R7,LR}
          CFI R14 Frame(CFA, -4)
          CFI R7 Frame(CFA, -8)
          CFI R6 Frame(CFA, -12)
          CFI R5 Frame(CFA, -16)
          CFI R4 Frame(CFA, -20)
          CFI CFA R13+24
        MOV      R4,R0
        MOV      R5,R1
        MOV      R6,R2
        MOV      R7,R3
//   36   GUI_USE_PARA(Flags);
//   37   if (hObj && hDestWin) {
        CMP      R4,#+0
        BEQ.N    ??MENU_Popup_0
        CMP      R5,#+0
        BEQ.N    ??MENU_Popup_0
//   38     MENU_Obj* pObj;
//   39     WM_LOCK();
//   40     pObj = MENU_H2P(hObj);
          CFI FunCall GUI_ALLOC_h2p
        BL       GUI_ALLOC_h2p
//   41     if (pObj) {
        CMP      R0,#+0
        BEQ.N    ??MENU_Popup_0
//   42       pObj->Flags  |= MENU_SF_POPUP;
        LDRH     R1,[R0, #+94]
        ORR      R1,R1,#0x80
        STRH     R1,[R0, #+94]
        LDR      R1,[SP, #+24]
//   43       pObj->Width   = ((xSize > 0) ? xSize : 0);
        CMP      R1,#+1
        BGE.N    ??MENU_Popup_1
        MOVS     R1,#+0
??MENU_Popup_1:
        STR      R1,[R0, #+100]
        LDR      R1,[SP, #+28]
//   44       pObj->Height  = ((ySize > 0) ? ySize : 0);
        CMP      R1,#+1
        BGE.N    ??MENU_Popup_2
        MOVS     R1,#+0
??MENU_Popup_2:
        STR      R1,[R0, #+104]
//   45       x            += WM_GetWindowOrgX(hDestWin);
        MOV      R0,R5
          CFI FunCall WM_GetWindowOrgX
        BL       WM_GetWindowOrgX
        ADDS     R6,R0,R6
//   46       y            += WM_GetWindowOrgY(hDestWin);
        MOV      R0,R5
          CFI FunCall WM_GetWindowOrgY
        BL       WM_GetWindowOrgY
        ADDS     R7,R0,R7
//   47       MENU_SetOwner(hObj, hDestWin);
        MOV      R1,R5
        MOV      R0,R4
          CFI FunCall MENU_SetOwner
        BL       MENU_SetOwner
//   48       WM_AttachWindowAt(hObj, WM_HBKWIN, x, y);
          CFI FunCall WM_GetDesktopWindow
        BL       WM_GetDesktopWindow
        MOV      R1,R0
        MOV      R3,R7
        MOV      R2,R6
        MOV      R0,R4
          CFI FunCall WM_AttachWindowAt
        BL       WM_AttachWindowAt
//   49       MENU__SendMenuMessage(hDestWin, hObj, MENU_ON_OPEN, 0);
        MOVS     R3,#+0
        MOVS     R2,#+3
        MOV      R1,R4
        MOV      R0,R5
        ADD      SP,SP,#+4
          CFI CFA R13+20
        POP      {R4-R7,LR}
          CFI R4 SameValue
          CFI R5 SameValue
          CFI R6 SameValue
          CFI R7 SameValue
          CFI R14 SameValue
          CFI CFA R13+0
          CFI FunCall MENU__SendMenuMessage
        B.W      MENU__SendMenuMessage
          CFI R4 Frame(CFA, -20)
          CFI R5 Frame(CFA, -16)
          CFI R6 Frame(CFA, -12)
          CFI R7 Frame(CFA, -8)
          CFI R14 Frame(CFA, -4)
          CFI CFA R13+24
//   50     }
//   51     WM_UNLOCK();
//   52   }
//   53 }
??MENU_Popup_0:
        POP      {R0,R4-R7,PC}    ;; return
          CFI EndBlock cfiBlock0

        SECTION `.iar_vfe_header`:DATA:NOALLOC:NOROOT(2)
        SECTION_TYPE SHT_PROGBITS, 0
        DATA
        DC32 0

        END
//   54 
//   55 #else  /* avoid empty object files */
//   56   void MENU_Popup_C(void) {}
//   57 #endif
//   58 
//   59 /*************************** End of file ****************************/
// 
// 118 bytes in section .text
// 
// 118 bytes of CODE memory
//
//Errors: none
//Warnings: none
