///////////////////////////////////////////////////////////////////////////////
//
// IAR ANSI C/C++ Compiler V7.10.1.6676/W32 for ARM       25/Feb/2020  18:22:39
// Copyright 1999-2014 IAR Systems AB.
//
//    Cpu mode     =  thumb
//    Endian       =  little
//    Source file  =  
//        E:\code\Robin_Nano_SVN\branches\robin_nano_tft35_嘉禾三维\mksRobin_Nano_code\Src\mks_cfg.cpp
//    Command line =  
//        E:\code\Robin_Nano_SVN\branches\robin_nano_tft35_嘉禾三维\mksRobin_Nano_code\Src\mks_cfg.cpp
//        -D USE_HAL_DRIVER -D STM32F103xE -D STM32F10X_HD -D USE_HAL_LIB -D
//        MKS_ROBIN_NANO -D TFT35 -lC
//        E:\code\Robin_Nano_SVN\branches\robin_nano_tft35_嘉禾三维\mksRobin_Nano_code\EWARM\mksRobin2/List\
//        -lA
//        E:\code\Robin_Nano_SVN\branches\robin_nano_tft35_嘉禾三维\mksRobin_Nano_code\EWARM\mksRobin2/List\
//        --diag_suppress Pa050 -o
//        E:\code\Robin_Nano_SVN\branches\robin_nano_tft35_嘉禾三维\mksRobin_Nano_code\EWARM\mksRobin2/Obj\
//        --no_unroll --no_inline --no_tbaa --no_scheduling --debug
//        --endian=little --cpu=Cortex-M3 -e --char_is_signed --fpu=None
//        --dlib_config "C:\Program Files (x86)\IAR Systems\Embedded Workbench
//        7.0\arm\INC\c\DLib_Config_Full.h" -I
//        E:\code\Robin_Nano_SVN\branches\robin_nano_tft35_嘉禾三维\mksRobin_Nano_code\EWARM/../Inc\
//        -I
//        E:\code\Robin_Nano_SVN\branches\robin_nano_tft35_嘉禾三维\mksRobin_Nano_code\EWARM/../Src\
//        -I
//        E:\code\Robin_Nano_SVN\branches\robin_nano_tft35_嘉禾三维\mksRobin_Nano_code\EWARM/../Drivers/STM32F1xx_HAL_Driver/Inc\
//        -I
//        E:\code\Robin_Nano_SVN\branches\robin_nano_tft35_嘉禾三维\mksRobin_Nano_code\EWARM/../Drivers/STM32F1xx_HAL_Driver/Inc/Legacy\
//        -I
//        E:\code\Robin_Nano_SVN\branches\robin_nano_tft35_嘉禾三维\mksRobin_Nano_code\EWARM/../Middlewares/Third_Party/FatFs/src/drivers\
//        -I
//        E:\code\Robin_Nano_SVN\branches\robin_nano_tft35_嘉禾三维\mksRobin_Nano_code\EWARM/../Middlewares/ST/STM32_USB_Host_Library/Core/Inc\
//        -I
//        E:\code\Robin_Nano_SVN\branches\robin_nano_tft35_嘉禾三维\mksRobin_Nano_code\EWARM/../Middlewares/ST/STM32_USB_Host_Library/Class/MSC/Inc\
//        -I
//        E:\code\Robin_Nano_SVN\branches\robin_nano_tft35_嘉禾三维\mksRobin_Nano_code\EWARM/../Drivers/CMSIS/Device/ST/STM32F1xx/Include\
//        -I
//        E:\code\Robin_Nano_SVN\branches\robin_nano_tft35_嘉禾三维\mksRobin_Nano_code\EWARM/../Middlewares/Third_Party/FatFs/src\
//        -I
//        E:\code\Robin_Nano_SVN\branches\robin_nano_tft35_嘉禾三维\mksRobin_Nano_code\EWARM/../Middlewares/Third_Party/Marlin\
//        -I
//        E:\code\Robin_Nano_SVN\branches\robin_nano_tft35_嘉禾三维\mksRobin_Nano_code\EWARM/../Drivers/CMSIS/Include\
//        -I
//        E:\code\Robin_Nano_SVN\branches\robin_nano_tft35_嘉禾三维\mksRobin_Nano_code\EWARM/../Drivers/BSP/variant\
//        -I
//        E:\code\Robin_Nano_SVN\branches\robin_nano_tft35_嘉禾三维\mksRobin_Nano_code\EWARM/../Drivers/BSP/Components/at24cxx\
//        -I
//        E:\code\Robin_Nano_SVN\branches\robin_nano_tft35_嘉禾三维\mksRobin_Nano_code\EWARM/../Drivers/BSP/Components/w25qxx\
//        -I
//        E:\code\Robin_Nano_SVN\branches\robin_nano_tft35_嘉禾三维\mksRobin_Nano_code\EWARM/../Drivers/BSP/Components/lcd\
//        -I
//        E:\code\Robin_Nano_SVN\branches\robin_nano_tft35_嘉禾三维\mksRobin_Nano_code\EWARM/../Drivers/STM32F10x_StdPeriph_Driver/inc\
//        -I
//        E:\code\Robin_Nano_SVN\branches\robin_nano_tft35_嘉禾三维\mksRobin_Nano_code\EWARM/../Drivers/libstmf4/include\
//        -I
//        E:\code\Robin_Nano_SVN\branches\robin_nano_tft35_嘉禾三维\mksRobin_Nano_code\EWARM/../Middlewares/arduino/stm32/cores/arduino\
//        -I
//        E:\code\Robin_Nano_SVN\branches\robin_nano_tft35_嘉禾三维\mksRobin_Nano_code\EWARM/../User/ui\
//        -I
//        E:\code\Robin_Nano_SVN\branches\robin_nano_tft35_嘉禾三维\mksRobin_Nano_code\EWARM/../User/ui/Multi_language\
//        -I
//        E:\code\Robin_Nano_SVN\branches\robin_nano_tft35_嘉禾三维\mksRobin_Nano_code\EWARM/../User/ui/QRENCODE\
//        -I
//        E:\code\Robin_Nano_SVN\branches\robin_nano_tft35_嘉禾三维\mksRobin_Nano_code\EWARM\..\Middlewares\GUI\
//        -Om --eec++ -I "C:\Program Files (x86)\IAR Systems\Embedded Workbench
//        7.0\arm\CMSIS\Include\"
//    List file    =  
//        E:\code\Robin_Nano_SVN\branches\robin_nano_tft35_嘉禾三维\mksRobin_Nano_code\EWARM\mksRobin2/List\mks_cfg.s
//
///////////////////////////////////////////////////////////////////////////////

        RTMODEL "__CPP_Language", "EC++"
        RTMODEL "__SystemLibrary", "DLib"
        RTMODEL "__dlib_file_descriptor", "1"
        RTMODEL "__dlib_full_locale_support", "1"
        AAPCS BASE,INTERWORK
        PRESERVE8
        REQUIRE8

        #define SHT_PROGBITS 0x1

        EXTERN AT24CXX_Read
        EXTERN AT24CXX_Write
        EXTERN SD_Path
        EXTERN SPI_FLASH_BufferRead
        EXTERN SPI_FLASH_BufferWrite
        EXTERN SPI_FLASH_SectorErase
        EXTERN Serial3
        EXTERN _Z17serial_echopair_PPKcS0_
        EXTERN _ZN10USARTClass5writeEh
        EXTERN _ZN11Temperature16extrude_min_tempE
        EXTERN _ZN11Temperature2KdE
        EXTERN _ZN11Temperature2KiE
        EXTERN _ZN11Temperature2KpE
        EXTERN _ZN11Temperature5bedKdE
        EXTERN _ZN11Temperature5bedKiE
        EXTERN _ZN11Temperature5bedKpE
        EXTERN _ZN14MarlinSettings4saveEv
        EXTERN _ZN14MarlinSettings5resetEv
        EXTERN _ZN17mesh_bed_leveling8meshInitEv
        EXTERN _ZN20unified_bed_leveling24mesh_index_to_xypos_initEv
        EXTERN _ZN7Planner12accelerationE
        EXTERN _ZN7Planner17axis_steps_per_mmE
        EXTERN _ZN7Planner17max_feedrate_mm_sE
        EXTERN _ZN7Planner17min_feedrate_mm_sE
        EXTERN _ZN7Planner19min_segment_time_usE
        EXTERN _ZN7Planner19travel_accelerationE
        EXTERN _ZN7Planner20retract_accelerationE
        EXTERN _ZN7Planner24min_travel_feedrate_mm_sE
        EXTERN _ZN7Planner26max_acceleration_mm_per_s2E
        EXTERN _ZN7Planner4initEv
        EXTERN _ZN7Planner8max_jerkE
        EXTERN __aeabi_cfcmple
        EXTERN __aeabi_d2f
        EXTERN __aeabi_ddiv
        EXTERN __aeabi_dmul
        EXTERN __aeabi_f2iz
        EXTERN __aeabi_fadd
        EXTERN __aeabi_fdiv
        EXTERN __aeabi_fsub
        EXTERN __aeabi_memclr4
        EXTERN __aeabi_memcpy4
        EXTERN __iar_Strstr
        EXTERN atof
        EXTERN atoi
        EXTERN base_home_pos_P
        EXTERN base_max_pos_P
        EXTERN base_min_pos_P
        EXTERN cfg_cloud_flag
        EXTERN cfg_wifi_flag
        EXTERN delta_calibration_radius
        EXTERN delta_diagonal_rod
        EXTERN delta_height
        EXTERN delta_radius
        EXTERN delta_segments_per_second
        EXTERN echomagic
        EXTERN f_close
        EXTERN f_open
        EXTERN f_printf
        EXTERN f_read
        EXTERN f_rename
        EXTERN f_unlink
        EXTERN home_bump_mm_P
        EXTERN home_dir_P
        EXTERN homing_feedrate_mm_s
        EXTERN max_length_P
        EXTERN memset
        EXTERN mksReprint
        EXTERN mkstft_ui_load
        EXTERN planner
        EXTERN soft_endstop_max
        EXTERN soft_endstop_min
        EXTERN strcat
        EXTERN strcmp
        EXTERN strlen
        EXTERN strncpy
        EXTERN xy_probe_feedrate_mm_s
        EXTERN zprobe_zoffset

        PUBLIC _Z11mksCardTestv
        PUBLIC _Z12eprBurnValuePcPf
        PUBLIC _Z12eprBurnValuePcPft
        PUBLIC _Z12eprBurnValuePcPht
        PUBLIC _Z12eprBurnValuePcPit
        PUBLIC _Z12eprBurnValuePcPj
        PUBLIC _Z12eprBurnValuePcPst
        PUBLIC _Z12hexBurnValuePcPit
        PUBLIC _Z14flashBurnValuePct
        PUBLIC _Z14serialprintPGMPKc
        PUBLIC _Z15mksGetParameterPc
        PUBLIC _Z21eprBurnValue_levelingPcPiS0_tt
        PUBLIC _Z22mksGetParameterToFlashPc
        PUBLIC _Z6strstrPcPKc
        PUBLIC _Z7mksSwapPfS_
        PUBLIC _Z9ascii2decPcc
        PUBLIC _ZN10CardReader16mksConfigurationEv
        PUBLIC _ZN10CardReader16mksEepromRefreshEv
        PUBLIC _ZN10CardReader3getEv
        PUBLIC _ZN10CardReader7mksLoadEv
        PUBLIC _ZN10CardReader8mksResetEv
        PUBLIC _ZTI5Print
        PUBLIC cfg_buf
        PUBLIC cfg_file
        PUBLIC cfg_file_cur
        PUBLIC cmd_code
        PUBLIC dst_buf
        PUBLIC epr_read_data
        PUBLIC epr_write_data
        PUBLIC gCfgItems
        PUBLIC gCurFileState
        PUBLIC mksCfg
        PUBLIC mksTmp
        PUBLIC ugbksize
        
          CFI Names cfiNames0
          CFI StackFrame CFA R13 DATA
          CFI Resource R0:32, R1:32, R2:32, R3:32, R4:32, R5:32, R6:32, R7:32
          CFI Resource R8:32, R9:32, R10:32, R11:32, R12:32, R13:32, R14:32
          CFI EndNames cfiNames0
        
          CFI Common cfiCommon0 Using cfiNames0
          CFI CodeAlign 2
          CFI DataAlign 4
          CFI ReturnAddress R14 CODE
          CFI CFA R13+0
          CFI R0 Undefined
          CFI R1 Undefined
          CFI R2 Undefined
          CFI R3 Undefined
          CFI R4 SameValue
          CFI R5 SameValue
          CFI R6 SameValue
          CFI R7 SameValue
          CFI R8 SameValue
          CFI R9 SameValue
          CFI R10 SameValue
          CFI R11 SameValue
          CFI R12 Undefined
          CFI R14 SameValue
          CFI EndCommon cfiCommon0
        
// E:\code\Robin_Nano_SVN\branches\robin_nano_tft35_嘉禾三维\mksRobin_Nano_code\Src\mks_cfg.cpp
//    1 
//    2 #include "Marlin.h"

        SECTION `.text`:CODE:REORDER:NOROOT(1)
        SECTION_GROUP _Z6strstrPcPKc
          CFI Block cfiBlock0 Using cfiCommon0
          CFI Function _Z6strstrPcPKc
          CFI FunCall __iar_Strstr
        THUMB
// __intrinsic __nounwind __interwork __softfp char *strstr(char *, char const *)
_Z6strstrPcPKc:
        B.W      __iar_Strstr
          CFI EndBlock cfiBlock0

        SECTION `.text`:CODE:REORDER:NOROOT(2)
        SECTION_GROUP _Z14serialprintPGMPKc
          CFI Block cfiBlock1 Using cfiCommon0
          CFI Function _Z14serialprintPGMPKc
        THUMB
// __interwork __softfp void serialprintPGM(char const *)
_Z14serialprintPGMPKc:
        PUSH     {R4,LR}
          CFI R14 Frame(CFA, -4)
          CFI R4 Frame(CFA, -8)
          CFI CFA R13+8
        MOV      R4,R0
        B.N      ??serialprintPGM_0
??serialprintPGM_1:
        UXTB     R1,R1
        LDR.N    R0,??serialprintPGM_2
          CFI FunCall _ZN10USARTClass5writeEh
        BL       _ZN10USARTClass5writeEh
??serialprintPGM_0:
        LDRSB    R1,[R4], #+1
        MOVS     R0,R1
        BNE.N    ??serialprintPGM_1
        POP      {R4,PC}          ;; return
        DATA
??serialprintPGM_2:
        DC32     Serial3
          CFI EndBlock cfiBlock1
//    3 #include "cardreader.h"

        SECTION `.text`:CODE:REORDER:NOROOT(1)
        SECTION_GROUP _ZN10CardReader3getEv
          CFI Block cfiBlock2 Using cfiCommon0
          CFI Function _ZN10CardReader3getEv
        THUMB
// __interwork __softfp int16_t CardReader::get()
_ZN10CardReader3getEv:
        PUSH     {R2-R4,LR}
          CFI R14 Frame(CFA, -4)
          CFI R4 Frame(CFA, -8)
          CFI CFA R13+16
        MOV      R4,R0
        ADD      R3,SP,#+4
        MOVS     R2,#+1
        ADD      R1,SP,#+0
          CFI FunCall f_read
        BL       f_read
        CMP      R0,#+0
        BEQ.N    ??get_0
        MOV      R0,#-1
        STRB     R0,[SP, #+0]
        B.N      ??get_1
??get_0:
        LDR      R0,[R4, #+1120]
        LDR      R1,[SP, #+4]
        ADDS     R0,R1,R0
        STR      R0,[R4, #+1120]
??get_1:
        LDRSB    R0,[SP, #+0]
        POP      {R1,R2,R4,PC}    ;; return
          CFI EndBlock cfiBlock2
//    4 #include "fatfs.h"
//    5 #include "mks_cfg.h"
//    6 #include "mks_reprint.h"
//    7 #include "usb_host.h"
//    8 
//    9 #include <string.h>
//   10 #include "configuration_store.h"
//   11 #include "temperature.h"
//   12 #include "at24cxx.h"
//   13 
//   14 #include "mesh_bed_leveling.h"
//   15 #include "ubl.h"
//   16 #include "spi_flash.h"
//   17 #include "pic_manager.h"
//   18 void epr_read_data(int pos, uint8_t* value, uint16_t size);
//   19 //char WELCOME_MSG[30] = "3D Printer ready.";
//   20 

        SECTION `.bss`:DATA:REORDER:NOROOT(2)
//   21 volatile u32 ugbksize;//flash中Unicode转GBK转换表大小值。
ugbksize:
        DS8 4
//   22 
//   23 #if defined(MKS_ROBIN2)
//   24 char *cfg_file = "robin2_cfg.txt";	
//   25 char *cfg_file_cur = "robin2_cfg.CUR";
//   26 #elif defined(MKS_ROBIN)
//   27 char *cfg_file = "robin2_cfg.txt";	
//   28 char *cfg_file_cur = "robin2_cfg.CUR";
//   29 #elif defined(MKS_ROBIN_MINI)
//   30 char *cfg_file = "robin2_cfg.txt";	
//   31 char *cfg_file_cur = "robin2_cfg.CUR";
//   32 #elif defined(MKS_ROBIN_NANO)
//   33 char *cfg_file = "robin_nano_cfg.txt";	
//   34 char *cfg_file_cur = "robin_nano_cfg.CUR";
//   35 #endif
//   36 char cfg_buf[CFG_BUF_LEN+1];

        SECTION `.bss`:DATA:REORDER:NOROOT(2)
//   37 char dst_buf[DST_BUF_LEN+1];
dst_buf:
        DS8 52
//   38 char cmd_code[CMD_CODE_LEN+1];
//   39 

        SECTION `.bss`:DATA:REORDER:NOROOT(2)
//   40 FILE_PRINT_STATE gCurFileState;
gCurFileState:
        DS8 576

        SECTION `.data`:DATA:REORDER:NOROOT(2)
//   41 CFG_PRINTER_ITMES mksCfg;
//   42 TMP_PRINTER_ITMES mksTmp;
mksTmp:
        DATA
        DC8 0, 0, 0, 0, 0, 0, 0, 0, 0, 0, 0, 0, 0, 0, 0, 0
        DC8 0, 0, 0, 0, 0, 0, 0, 0
cfg_file:
        DC32 `?<Constant "robin_nano_cfg.txt">`
cfg_file_cur:
        DC32 `?<Constant "robin_nano_cfg.CUR">`
cfg_buf:
        DC8 0, 0, 0, 0, 0, 0, 0, 0, 0, 0, 0, 0, 0, 0, 0, 0
        DC8 0, 0, 0, 0, 0, 0, 0, 0, 0, 0, 0, 0, 0, 0, 0, 0
        DC8 0, 0, 0, 0, 0, 0, 0, 0, 0, 0, 0, 0, 0, 0, 0, 0
        DC8 0, 0, 0, 0, 0, 0, 0, 0, 0, 0, 0, 0, 0, 0, 0, 0
        DC8 0, 0, 0, 0, 0, 0, 0, 0, 0, 0, 0, 0, 0, 0, 0, 0
        DC8 0, 0, 0, 0, 0, 0, 0, 0, 0, 0, 0, 0, 0, 0, 0, 0
        DC8 0, 0, 0, 0, 0, 0, 0, 0, 0, 0, 0, 0, 0, 0, 0, 0
        DC8 0, 0, 0, 0, 0, 0, 0, 0, 0, 0, 0, 0, 0, 0, 0, 0
        DC8 0, 0, 0, 0, 0, 0, 0, 0, 0, 0, 0, 0, 0, 0, 0, 0
        DC8 0, 0, 0, 0, 0, 0, 0, 0, 0, 0, 0, 0, 0, 0, 0, 0
        DC8 0, 0, 0, 0, 0, 0, 0, 0, 0, 0, 0, 0, 0, 0, 0, 0
        DC8 0, 0, 0, 0, 0, 0, 0, 0, 0, 0, 0, 0, 0, 0, 0, 0
        DC8 0, 0, 0, 0, 0, 0, 0, 0, 0, 0, 0, 0, 0, 0, 0, 0
        DC8 0, 0, 0, 0, 0, 0, 0, 0, 0, 0, 0, 0, 0, 0, 0, 0
        DC8 0, 0, 0, 0, 0, 0, 0, 0, 0, 0, 0, 0, 0, 0, 0, 0
        DC8 0, 0, 0, 0, 0, 0, 0, 0, 0, 0, 0, 0, 0, 0, 0, 0
        DC8 0, 0, 0, 0, 0, 0, 0, 0, 0, 0, 0, 0, 0, 0, 0, 0
        DC8 0, 0, 0, 0, 0, 0, 0, 0, 0, 0, 0, 0, 0, 0, 0, 0
        DC8 0, 0, 0, 0, 0, 0, 0, 0, 0, 0, 0, 0, 0, 0, 0, 0
        DC8 0, 0, 0, 0, 0, 0, 0, 0, 0, 0, 0, 0, 0, 0, 0, 0
        DC8 0, 0, 0, 0, 0, 0, 0, 0, 0, 0, 0, 0, 0, 0, 0, 0
        DC8 0, 0, 0, 0, 0, 0, 0, 0, 0, 0, 0, 0, 0, 0, 0, 0
        DC8 0, 0, 0, 0, 0, 0, 0, 0, 0, 0, 0, 0, 0, 0, 0, 0
        DC8 0, 0, 0, 0, 0, 0, 0, 0, 0, 0, 0, 0, 0, 0, 0, 0
        DC8 0, 0, 0, 0, 0, 0, 0, 0, 0, 0, 0, 0, 0, 0, 0, 0
        DC8 0, 0, 0, 0, 0, 0, 0, 0, 0, 0, 0, 0, 0, 0, 0, 0
        DC8 0, 0, 0, 0, 0, 0, 0, 0, 0, 0, 0, 0, 0, 0, 0, 0
        DC8 0, 0, 0, 0, 0, 0, 0, 0, 0, 0, 0, 0, 0, 0, 0, 0
        DC8 0, 0, 0, 0, 0, 0, 0, 0, 0, 0, 0, 0, 0, 0, 0, 0
        DC8 0, 0, 0, 0, 0, 0, 0, 0, 0, 0, 0, 0, 0, 0, 0, 0
        DC8 0, 0, 0, 0, 0, 0, 0, 0, 0, 0, 0, 0, 0, 0, 0, 0
        DC8 0, 0, 0, 0, 0, 0, 0, 0, 0, 0, 0, 0, 0, 0, 0, 0
        DC8 0, 0, 0, 0, 0, 0, 0, 0, 0, 0, 0, 0, 0, 0, 0, 0
        DC8 0, 0, 0, 0, 0, 0, 0, 0, 0, 0, 0, 0, 0, 0, 0, 0
        DC8 0, 0, 0, 0, 0, 0, 0, 0, 0, 0, 0, 0, 0, 0, 0, 0
        DC8 0, 0, 0, 0, 0, 0, 0, 0, 0, 0, 0, 0, 0, 0, 0, 0
        DC8 0, 0, 0, 0, 0, 0, 0, 0, 0, 0, 0, 0, 0, 0, 0, 0
        DC8 0, 0, 0, 0, 0, 0, 0, 0, 0, 0, 0, 0, 0, 0, 0, 0
        DC8 0, 0, 0, 0, 0, 0, 0, 0, 0, 0, 0, 0, 0, 0, 0, 0
        DC8 0, 0, 0, 0, 0, 0, 0, 0, 0, 0, 0, 0, 0, 0, 0, 0
        DC8 0, 0, 0, 0, 0, 0, 0, 0, 0, 0, 0, 0, 0, 0, 0, 0
        DC8 0, 0, 0, 0, 0, 0, 0, 0, 0, 0, 0, 0, 0, 0, 0, 0
        DC8 0, 0, 0, 0, 0, 0, 0, 0, 0, 0, 0, 0, 0, 0, 0, 0
        DC8 0, 0, 0, 0, 0, 0, 0, 0, 0, 0, 0, 0, 0, 0, 0, 0
        DC8 0, 0, 0, 0, 0, 0, 0, 0, 0, 0, 0, 0, 0, 0, 0, 0
        DC8 0, 0, 0, 0, 0, 0, 0, 0, 0, 0, 0, 0, 0, 0, 0, 0
        DC8 0, 0, 0, 0, 0, 0, 0, 0, 0, 0, 0, 0, 0, 0, 0, 0
        DC8 0, 0, 0, 0, 0, 0, 0, 0, 0, 0, 0, 0, 0, 0, 0, 0
        DC8 0, 0, 0, 0, 0, 0, 0, 0, 0, 0, 0, 0, 0, 0, 0, 0
        DC8 0, 0, 0, 0, 0, 0, 0, 0, 0, 0, 0, 0, 0, 0, 0, 0
        DC8 0, 0, 0, 0, 0, 0, 0, 0, 0, 0, 0, 0, 0, 0, 0, 0
        DC8 0, 0, 0, 0, 0, 0, 0, 0, 0, 0, 0, 0, 0, 0, 0, 0
        DC8 0, 0, 0, 0, 0, 0, 0, 0, 0, 0, 0, 0, 0, 0, 0, 0
        DC8 0, 0, 0, 0, 0, 0, 0, 0, 0, 0, 0, 0, 0, 0, 0, 0
        DC8 0, 0, 0, 0, 0, 0, 0, 0, 0, 0, 0, 0, 0, 0, 0, 0
        DC8 0, 0, 0, 0, 0, 0, 0, 0, 0, 0, 0, 0, 0, 0, 0, 0
        DC8 0, 0, 0, 0, 0, 0, 0, 0, 0, 0, 0, 0, 0, 0, 0, 0
        DC8 0, 0, 0, 0, 0, 0, 0, 0, 0, 0, 0, 0, 0, 0, 0, 0
        DC8 0, 0, 0, 0, 0, 0, 0, 0, 0, 0, 0, 0, 0, 0, 0, 0
        DC8 0, 0, 0, 0, 0, 0, 0, 0, 0, 0, 0, 0, 0, 0, 0, 0
        DC8 0, 0, 0, 0, 0, 0, 0, 0, 0, 0, 0, 0, 0, 0, 0, 0
        DC8 0, 0, 0, 0, 0, 0, 0, 0, 0, 0, 0, 0, 0, 0, 0, 0
        DC8 0, 0, 0, 0, 0, 0, 0, 0, 0, 0, 0, 0, 0, 0, 0, 0
        DC8 0, 0, 0, 0, 0, 0, 0, 0, 0, 0, 0, 0, 0, 0, 0, 0, 0, 0, 0, 0
cmd_code:
        DC8 0, 0, 0, 0, 0, 0, 0, 0, 0, 0, 0, 0, 0, 0, 0, 0
        DC8 0, 0, 0, 0, 0, 0, 0, 0, 0, 0, 0, 0, 0, 0, 0, 0
        DC8 0, 0, 0, 0, 0, 0, 0, 0, 0, 0, 0, 0, 0, 0, 0, 0
        DC8 0, 0, 0, 0, 0, 0, 0, 0, 0, 0, 0, 0, 0, 0, 0, 0
        DC8 0, 0, 0, 0, 0, 0, 0, 0, 0, 0, 0, 0, 0, 0, 0, 0
        DC8 0, 0, 0, 0, 0, 0, 0, 0, 0, 0, 0, 0, 0, 0, 0, 0
        DC8 0, 0, 0, 0, 0, 0, 0, 0, 0, 0, 0, 0, 0, 0, 0, 0
        DC8 0, 0, 0, 0, 0, 0, 0, 0, 0, 0, 0, 0, 0, 0, 0, 0
        DC8 0, 0, 0, 0, 0, 0, 0, 0, 0, 0, 0, 0, 0, 0, 0, 0
        DC8 0, 0, 0, 0, 0, 0, 0, 0, 0, 0, 0, 0, 0, 0, 0, 0
        DC8 0, 0, 0, 0, 0, 0, 0, 0, 0, 0, 0, 0, 0, 0, 0, 0
        DC8 0, 0, 0, 0, 0, 0, 0, 0, 0, 0, 0, 0, 0, 0, 0, 0
        DC8 0, 0, 0, 0, 0, 0, 0, 0, 0, 0, 0, 0

        SECTION `.bss`:DATA:REORDER:NOROOT(2)
//   43 CFG_ITMES gCfgItems;
gCfgItems:
        DS8 680
mksCfg:
        DS8 264
//   44 
//   45 #if 1//def USE_MKS_WIFI
//   46 extern int cfg_wifi_flag;
//   47 extern int cfg_cloud_flag;
//   48 #endif
//   49 
//   50 void epr_write_data(uint16_t pos, const uint8_t* value, uint16_t size);
//   51 
//   52 #if ENABLED(ULTRA_LCD)
//   53 void Language_Reset();
//   54 void Language_Load();
//   55 #endif
//   56 

        SECTION `.text`:CODE:NOROOT(1)
          CFI Block cfiBlock3 Using cfiCommon0
          CFI Function _Z15mksGetParameterPc
        THUMB
//   57 void mksGetParameter(char *str)
//   58 {
_Z15mksGetParameterPc:
        PUSH     {R3-R5,LR}
          CFI R14 Frame(CFA, -4)
          CFI R5 Frame(CFA, -8)
          CFI R4 Frame(CFA, -12)
          CFI CFA R13+16
        MOV      R4,R0
//   59 	char *p;
//   60 	memset(cmd_code,0,sizeof(cmd_code));
        LDR.W    R5,??DataTable243
        MOVS     R2,#+201
        MOVS     R1,#+0
        MOV      R0,R5
          CFI FunCall memset
        BL       memset
//   61 	p = cmd_code;
        MOV      R0,R5
        B.N      ??mksGetParameter_0
//   62 	while(((*str) != '\r')&&((*str) != '\n')&&((*str) != '#'))
//   63 	{
//   64 		if((*str == 0x20)||(*str == 0x09))
//   65 		{
//   66 			str++;
??mksGetParameter_1:
        ADDS     R4,R4,#+1
//   67 			continue;
//   68 		}
??mksGetParameter_0:
        LDRSB    R1,[R4, #+0]
        CMP      R1,#+13
        BEQ.N    ??mksGetParameter_2
        CMP      R1,#+10
        BEQ.N    ??mksGetParameter_2
        CMP      R1,#+35
        BEQ.N    ??mksGetParameter_2
        CMP      R1,#+32
        BEQ.N    ??mksGetParameter_1
        CMP      R1,#+9
        BEQ.N    ??mksGetParameter_1
//   69 		
//   70 		*p++ = *str++;
        LDRB     R1,[R4], #+1
        STRB     R1,[R0], #+1
//   71 		if((p- cmd_code) > CMD_CODE_LEN) 
        SUBS     R1,R0,R5
        CMP      R1,#+201
        BLT.N    ??mksGetParameter_0
//   72 			break;
//   73 	}
//   74 }
??mksGetParameter_2:
        POP      {R0,R4,R5,PC}    ;; return
          CFI EndBlock cfiBlock3
//   75 

        SECTION `.text`:CODE:NOROOT(1)
          CFI Block cfiBlock4 Using cfiCommon0
          CFI Function _Z22mksGetParameterToFlashPc
        THUMB
//   76 void mksGetParameterToFlash(char *str)
//   77 {
_Z22mksGetParameterToFlashPc:
        PUSH     {R3-R5,LR}
          CFI R14 Frame(CFA, -4)
          CFI R5 Frame(CFA, -8)
          CFI R4 Frame(CFA, -12)
          CFI CFA R13+16
        MOV      R4,R0
//   78 	char *p;
//   79 	memset(cmd_code,0,sizeof(cmd_code));
        LDR.W    R5,??DataTable243
        MOVS     R2,#+201
        MOVS     R1,#+0
        MOV      R0,R5
          CFI FunCall memset
        BL       memset
//   80 	p = cmd_code;
        MOV      R0,R5
//   81 	while(((*str) != '\r')&&((*str) != '\n')&&((*str) != '#'))
??mksGetParameterToFlash_0:
        LDRSB    R1,[R4, #+0]
        CMP      R1,#+13
        BEQ.N    ??mksGetParameterToFlash_1
        CMP      R1,#+10
        BEQ.N    ??mksGetParameterToFlash_1
        CMP      R1,#+35
        BEQ.N    ??mksGetParameterToFlash_1
//   82 	{		
//   83 		*p++ = *str++;
        LDRB     R1,[R4], #+1
        STRB     R1,[R0], #+1
//   84 		if((p- cmd_code) > CMD_CODE_LEN) 
        SUBS     R1,R0,R5
        CMP      R1,#+201
        BLT.N    ??mksGetParameterToFlash_0
//   85 			break;
//   86 	}
//   87 }
??mksGetParameterToFlash_1:
        POP      {R0,R4,R5,PC}    ;; return
          CFI EndBlock cfiBlock4
//   88 
//   89 

        SECTION `.text`:CODE:NOROOT(1)
          CFI Block cfiBlock5 Using cfiCommon0
          CFI Function _Z11mksCardTestv
        THUMB
//   90 void mksCardTest()
//   91 {
_Z11mksCardTestv:
        PUSH     {LR}
          CFI R14 Frame(CFA, -4)
          CFI CFA R13+4
        SUB      SP,SP,#+612
          CFI CFA R13+616
//   92 	char string[20]="clear_test_a";
        ADD      R0,SP,#+588
        ADR.W    R1,`?<Constant "clear_test_a">`
        MOVS     R2,#+20
          CFI FunCall __aeabi_memcpy4
        BL       __aeabi_memcpy4
//   93 	FIL pft;
//   94 	char *mks_pft_name = "mks_pft.sys";	//8.3 文件名结构
//   95 	
//   96 	char oldname[30]={0};
        ADD      R0,SP,#+0
        MOVS     R1,#+32
          CFI FunCall __aeabi_memclr4
        BL       __aeabi_memclr4
//   97 	strcat(oldname,SD_Path);
        LDR.W    R1,??DataTable243_1
        ADD      R0,SP,#+0
          CFI FunCall strcat
        BL       strcat
//   98 	strcat(oldname,mks_pft_name);
        ADR.W    R1,`?<Constant "mks_pft.sys">`
          CFI FunCall strcat
        BL       strcat
//   99 	
//  100 	if (f_open(&pft, (const TCHAR *)oldname, FA_CREATE_ALWAYS |  FA_WRITE) == FR_OK)
        MOVS     R2,#+10
        ADD      R1,SP,#+0
        ADD      R0,SP,#+32
          CFI FunCall f_open
        BL       f_open
        CMP      R0,#+0
        BNE.N    ??mksCardTest_0
//  101         {
//  102           f_printf(&pft,string);
        ADD      R1,SP,#+588
        ADD      R0,SP,#+32
          CFI FunCall f_printf
        BL       f_printf
//  103           f_close(&pft);
        ADD      R0,SP,#+32
          CFI FunCall f_close
        BL       f_close
//  104         }
//  105 
//  106 }
??mksCardTest_0:
        ADD      SP,SP,#+612
          CFI CFA R13+4
        POP      {PC}             ;; return
          CFI EndBlock cfiBlock5

        SECTION `.text`:CODE:NOROOT(2)
        SECTION_TYPE SHT_PROGBITS, 0
        DATA
`?<Constant "clear_test_a">`:
        DC8 "clear_test_a"
        DC8 0, 0, 0, 0, 0, 0, 0

        SECTION `.text`:CODE:NOROOT(2)
        SECTION_TYPE SHT_PROGBITS, 0
        DATA
`?<Constant "mks_pft.sys">`:
        DC8 "mks_pft.sys"
//  107 

        SECTION `.text`:CODE:NOROOT(1)
          CFI Block cfiBlock6 Using cfiCommon0
          CFI Function _ZN10CardReader16mksConfigurationEv
        THUMB
//  108 void CardReader::mksConfiguration() 
//  109 {
_ZN10CardReader16mksConfigurationEv:
        PUSH     {R4-R9,LR}
          CFI R14 Frame(CFA, -4)
          CFI R9 Frame(CFA, -8)
          CFI R8 Frame(CFA, -12)
          CFI R7 Frame(CFA, -16)
          CFI R6 Frame(CFA, -20)
          CFI R5 Frame(CFA, -24)
          CFI R4 Frame(CFA, -28)
          CFI CFA R13+28
        SUB      SP,SP,#+68
          CFI CFA R13+96
        MOV      R4,R0
//  110 	int16_t cfg_data;
//  111 	char *p;
//  112 	uint8_t notes_flag =0;
        MOVS     R5,#+0
//  113 	char oldname[30]={0};
        ADD      R0,SP,#+32
        MOVS     R1,#+32
          CFI FunCall __aeabi_memclr4
        BL       __aeabi_memclr4
//  114 	char newname[30]={0};
        ADD      R0,SP,#+0
        MOVS     R1,#+32
          CFI FunCall __aeabi_memclr4
        BL       __aeabi_memclr4
//  115 	FRESULT r;
//  116 
//  117 	//sdmount();
//  118 	strcat(oldname,SD_Path);
        LDR.W    R7,??DataTable243_1
        MOV      R1,R7
        ADD      R0,SP,#+32
          CFI FunCall strcat
        BL       strcat
//  119 	strcat(oldname,cfg_file);
        LDR.W    R6,??DataTable243_2
        LDR      R1,[R6, #+24]
          CFI FunCall strcat
        BL       strcat
//  120 
//  121 	if (f_open(&curFile, (const TCHAR *)oldname, FA_OPEN_EXISTING | FA_READ) == FR_OK)
        MOVS     R2,#+1
        ADD      R1,SP,#+32
        MOV      R0,R4
          CFI FunCall f_open
        BL       f_open
        CMP      R0,#+0
        BNE.W    ??mksConfiguration_0
//  122 	{
//  123       //filesize = file.fileSize();
//  124       filesize = f_size(&curFile);
        LDR      R0,[R4, #+524]
        STR      R0,[R4, #+1116]
//  125       SERIAL_PROTOCOLPAIR(MSG_SD_FILE_OPENED, cfg_file);
        LDR      R1,[R6, #+24]
        ADR.W    R0,`?<Constant "File opened: ">`
          CFI FunCall _Z17serial_echopair_PPKcS0_
        BL       _Z17serial_echopair_PPKcS0_
//  126       SERIAL_PROTOCOLLNPGM(".");
        ADR.N    R0,??DataTable238  ;; 0x2E, 0x0A, 0x00, 0x00
          CFI FunCall _Z14serialprintPGMPKc
        BL       _Z14serialprintPGMPKc
//  127       SERIAL_PROTOCOLLNPGM("Refresh eeprom...");
        ADR.W    R0,`?<Constant "Refresh eeprom...\\n">`
          CFI FunCall _Z14serialprintPGMPKc
        BL       _Z14serialprintPGMPKc
//  128 	  
//  129 	  SPI_FLASH_SectorErase(SD_INF_ADDR);
        MOV      R0,R5
          CFI FunCall SPI_FLASH_SectorErase
        BL       SPI_FLASH_SectorErase
//  130 	  SPI_FLASH_SectorErase(4*1024);
        MOV      R0,#+4096
          CFI FunCall SPI_FLASH_SectorErase
        BL       SPI_FLASH_SectorErase
//  131 
//  132 	 mksReset();
        MOV      R0,R4
          CFI FunCall _ZN10CardReader8mksResetEv
        BL       _ZN10CardReader8mksResetEv
//  133 	 (void)settings.reset();	//Marlin默认参数值恢复
          CFI FunCall _ZN14MarlinSettings5resetEv
        BL       _ZN14MarlinSettings5resetEv
//  134 	  memset(cfg_buf,0,sizeof(cfg_buf));
        MOVW     R8,#+1025
        MOV      R2,R8
        MOV      R1,R5
        ADD      R0,R6,#+32
          CFI FunCall memset
        BL       memset
//  135 	  p = cfg_buf;
        ADD      R9,R6,#+32
        B.N      ??mksConfiguration_1
//  136 	  while(1)
//  137 	  {
//  138 	  	//cfg_data = (int16_t)file.read();
//  139         cfg_data = (int16_t)get();
//  140 		if(cfg_data == -1 || sdpos >= filesize)	
//  141 		{
//  142 			*p++ = 0x0A; 
//  143 			mksEepromRefresh();
//  144 			break;
//  145 		}
//  146 		#if tan_mask//定制指令是需要空格的。
//  147 		//去掉空格
//  148 		if(cfg_data != 0x20 && cfg_data != 0x09)	//0x20 -- 空格； 0x09--水平制表符
//  149 		#endif
//  150 		{
//  151 			if(notes_flag == 0)
??mksConfiguration_2:
        CMP      R5,#+0
        BNE.N    ??mksConfiguration_3
//  152 	  			*p++ = (uint8_t)cfg_data;
        STRB     R0,[R9], #+1
//  153 		}
//  154 		
//  155 		//去掉注释,保留"#"
//  156 		if(cfg_data == 0x23 && notes_flag == 0)         // "#"
??mksConfiguration_3:
        CMP      R0,#+35
        BNE.N    ??mksConfiguration_4
        CMP      R5,#+0
        BNE.N    ??mksConfiguration_4
//  157 		{
//  158 				notes_flag = 1;
        MOVS     R5,#+1
//  159 		}
//  160 		if((cfg_data == 0x0A || cfg_data == 0x0D) && notes_flag == 1)  // 换行 ,回车
??mksConfiguration_4:
        CMP      R0,#+10
        BEQ.N    ??mksConfiguration_5
        CMP      R0,#+13
        BNE.N    ??mksConfiguration_6
??mksConfiguration_5:
        CMP      R5,#+1
        BNE.N    ??mksConfiguration_6
//  161 		{
//  162 				notes_flag = 0;
        MOVS     R5,#+0
//  163 				*p++ = (uint8_t)cfg_data;					
        STRB     R0,[R9], #+1
//  164 		}
//  165 		//分段进行配置
//  166 		if((cfg_data == 0x0A || cfg_data == 0x0D) && ((p-cfg_buf) > (CFG_BUF_LEN-200)))  
??mksConfiguration_6:
        CMP      R0,#+10
        BEQ.N    ??mksConfiguration_7
        CMP      R0,#+13
        BNE.N    ??mksConfiguration_1
??mksConfiguration_7:
        ADD      R0,R6,#+32
        SUB      R0,R9,R0
        CMP      R0,#+824
        BLE.N    ??mksConfiguration_1
//  167 		{
//  168 			mksEepromRefresh();
        MOV      R0,R4
          CFI FunCall _ZN10CardReader16mksEepromRefreshEv
        BL       _ZN10CardReader16mksEepromRefreshEv
//  169 			memset(cfg_buf,0,sizeof(cfg_buf));
        MOV      R2,R8
        MOVS     R1,#+0
        ADD      R0,R6,#+32
          CFI FunCall memset
        BL       memset
//  170 			p=cfg_buf;
        ADD      R9,R6,#+32
//  171             notes_flag = 0;
        MOVS     R5,#+0
//  172 		}
??mksConfiguration_1:
        MOV      R0,R4
          CFI FunCall _ZN10CardReader3getEv
        BL       _ZN10CardReader3getEv
        CMN      R0,#+1
        BEQ.N    ??mksConfiguration_8
        LDR      R1,[R4, #+1120]
        LDR      R2,[R4, #+1116]
        CMP      R1,R2
        BCC.N    ??mksConfiguration_2
??mksConfiguration_8:
        MOVS     R0,#+10
        STRB     R0,[R9, #+0]
        MOV      R0,R4
          CFI FunCall _ZN10CardReader16mksEepromRefreshEv
        BL       _ZN10CardReader16mksEepromRefreshEv
//  173 	  }
//  174 
//  175 
//  176 	  f_close(&curFile);
        MOV      R0,R4
          CFI FunCall f_close
        BL       f_close
//  177 
//  178 
//  179 	  strcat(newname,SD_Path);
        MOV      R1,R7
        ADD      R0,SP,#+0
          CFI FunCall strcat
        BL       strcat
//  180 	  strcat(newname,cfg_file_cur);
        LDR      R1,[R6, #+28]
          CFI FunCall strcat
        BL       strcat
//  181 
//  182 	  if(!mksTmp.cfg_hardware_test_enable)  //更改文件名
        LDRB     R0,[R6, #+19]
        CMP      R0,#+0
        BNE.N    ??mksConfiguration_9
//  183 	  	{
//  184 		  r = f_unlink(newname);
        ADD      R0,SP,#+0
          CFI FunCall f_unlink
        BL       f_unlink
//  185 		  r = f_rename(oldname,newname);
        ADD      R1,SP,#+0
        ADD      R0,SP,#+32
          CFI FunCall f_rename
        BL       f_rename
//  186 	  	}
//  187 
//  188 	  if(mksCfg.machinetype < 0 ||	mksCfg.machinetype > 9)   mksCfg.machinetype = 0;
??mksConfiguration_9:
        LDR.W    R0,??DataTable243_3
        ADD      R1,R0,#+744
        LDRSH    R2,[R1, #+24]
        CMP      R2,#+10
        BCC.N    ??mksConfiguration_10
        MOVS     R2,#+0
        STRH     R2,[R1, #+24]
//  189 	  mksCfg.machinetype = (1<<mksCfg.machinetype);
??mksConfiguration_10:
        MOVS     R2,#+1
        LDRH     R3,[R1, #+24]
        LSL      R3,R2,R3
        STRH     R3,[R1, #+24]
//  190 
//  191 	if(mksCfg.bed_leveling_method > 5)	mksCfg.bed_leveling_method = 0;
        LDRB     R3,[R0, #+744]
        CMP      R3,#+6
        BLT.N    ??mksConfiguration_11
        MOVS     R3,#+0
        STRB     R3,[R0, #+744]
//  192 	  mksCfg.bed_leveling_method = (1<<mksCfg.bed_leveling_method);
??mksConfiguration_11:
        LDRSB    R3,[R0, #+744]
        LSLS     R2,R2,R3
        STRB     R2,[R0, #+744]
//  193 
//  194 	if((mksCfg.machinetype == DELTA)&&(mksCfg.bed_leveling_method==MESH_BED_LEVELING))  
        LDRSH    R1,[R1, #+24]
        CMP      R1,#+2
        BNE.N    ??mksConfiguration_12
        LDRB     R1,[R0, #+744]
        CMP      R1,#+32
        BNE.N    ??mksConfiguration_12
//  195     {
//  196         mksCfg.bed_leveling_method = AUTO_BED_LEVELING_BILINEAR;
        MOVS     R1,#+8
        STRB     R1,[R0, #+744]
//  197     }
//  198 
//  199       //开启了双Z轴，双Z限位，
//  200       //由于硬件接口不够,强制禁用调平功能.
//  201       if((mksCfg.z2_enable==1)&&(mksCfg.z2_endstops_enable==1))
??mksConfiguration_12:
        LDRB     R1,[R0, #+937]
        CMP      R1,#+1
        BNE.N    ??mksConfiguration_13
        LDRB     R1,[R0, #+938]
        CMP      R1,#+1
        BNE.N    ??mksConfiguration_13
//  202       {
//  203         mksCfg.bed_leveling_method = 0;
        MOVS     R1,#+0
        STRB     R1,[R0, #+744]
//  204         epr_write_data(EPR_BED_LEVELING_METHOD, &mksCfg.bed_leveling_method,1);
        MOVS     R2,#+1
        ADD      R1,R0,#+744
        MOVW     R0,#+1516
          CFI FunCall epr_write_data
        BL       epr_write_data
//  205       }
//  206     
//  207 	  (void)settings.save();	//保存参数
??mksConfiguration_13:
          CFI FunCall _ZN14MarlinSettings4saveEv
        BL       _ZN14MarlinSettings4saveEv
//  208 	  SERIAL_PROTOCOLLNPGM("Refresh done!");  
        ADR.W    R0,`?<Constant "Refresh done!\\n">`
          CFI FunCall _Z14serialprintPGMPKc
        BL       _Z14serialprintPGMPKc
        B.N      ??mksConfiguration_14
//  209     }
//  210     else {
//  211       SERIAL_PROTOCOLPAIR(MSG_SD_OPEN_FILE_FAIL, cfg_file);
??mksConfiguration_0:
        LDR      R1,[R6, #+24]
        ADR.W    R0,`?<Constant "open failed, File: ">`
          CFI FunCall _Z17serial_echopair_PPKcS0_
        BL       _Z17serial_echopair_PPKcS0_
//  212       SERIAL_PROTOCOLCHAR('.');
        LDR.N    R4,??DataTable243_4
        MOVS     R1,#+46
        MOV      R0,R4
          CFI FunCall _ZN10USARTClass5writeEh
        BL       _ZN10USARTClass5writeEh
//  213       SERIAL_EOL();
        MOVS     R1,#+10
        MOV      R0,R4
          CFI FunCall _ZN10USARTClass5writeEh
        BL       _ZN10USARTClass5writeEh
//  214     }
//  215 }
??mksConfiguration_14:
        ADD      SP,SP,#+68
          CFI CFA R13+28
        POP      {R4-R9,PC}       ;; return
          CFI EndBlock cfiBlock6

        SECTION `.text`:CODE:NOROOT(2)
        SECTION_TYPE SHT_PROGBITS, 0
        DATA
`?<Constant "File opened: ">`:
        DC8 "File opened: "
        DC8 0, 0

        SECTION `.text`:CODE:NOROOT(2)
        SECTION_TYPE SHT_PROGBITS, 0
        DATA
`?<Constant "Refresh eeprom...\\n">`:
        DC8 "Refresh eeprom...\012"
        DC8 0

        SECTION `.text`:CODE:NOROOT(2)
        SECTION_TYPE SHT_PROGBITS, 0
        DATA
`?<Constant "Refresh done!\\n">`:
        DC8 "Refresh done!\012"
        DC8 0

        SECTION `.text`:CODE:NOROOT(2)
        SECTION_TYPE SHT_PROGBITS, 0
        DATA
`?<Constant "open failed, File: ">`:
        DC8 "open failed, File: "
//  216 
//  217 

        SECTION `.text`:CODE:NOROOT(1)
          CFI Block cfiBlock7 Using cfiCommon0
          CFI Function _Z9ascii2decPcc
          CFI NoCalls
        THUMB
//  218 int ascii2dec(char *ascii, char width)
//  219 {
_Z9ascii2decPcc:
        PUSH     {R4-R6}
          CFI R6 Frame(CFA, -4)
          CFI R5 Frame(CFA, -8)
          CFI R4 Frame(CFA, -12)
          CFI CFA R13+12
//  220 	int i = 0;
        MOVS     R3,#+0
//  221 	int result = 0;
        MOV      R2,R3
//  222 
//  223 	if(ascii == 0)
        CMP      R0,#+0
        BNE.N    ??ascii2dec_0
//  224 		return 0;
//  225 	
//  226 	while(i < width)
//  227 	{		
//  228 		result = result << 4;
//  229 		
//  230 		if(*(ascii + i) >= '0' && *(ascii + i) <= '9')
//  231 			result += *(ascii + i) - '0';
//  232 		else if(*(ascii + i) >= 'a' && *(ascii + i) <= 'f')
//  233 			result += *(ascii + i) - 'a' + 0x0a;
//  234 		else if(*(ascii + i) >= 'A' && *(ascii + i) <= 'F')
//  235 			result += *(ascii + i) - 'A' + 0x0a;
//  236 		else
//  237 			return 0;
??ascii2dec_1:
        MOVS     R0,#+0
        B.N      ??ascii2dec_2
??ascii2dec_3:
        SUBS     R4,R4,#+48
        ADDS     R2,R4,R2, LSL #+4
//  238 		
//  239 		i++;
??ascii2dec_4:
        ADDS     R3,R3,#+1
??ascii2dec_0:
        CMP      R3,R1
        BGE.N    ??ascii2dec_5
        LDRSB    R4,[R3, R0]
        MOV      R5,R4
        SUB      R6,R5,#+48
        CMP      R6,#+10
        BCC.N    ??ascii2dec_3
        SUB      R6,R5,#+97
        CMP      R6,#+6
        BCS.N    ??ascii2dec_6
        SUBS     R4,R4,#+87
        ADDS     R2,R4,R2, LSL #+4
        B.N      ??ascii2dec_4
??ascii2dec_6:
        SUBS     R5,R5,#+65
        CMP      R5,#+6
        BCS.N    ??ascii2dec_1
        SUBS     R4,R4,#+55
        ADDS     R2,R4,R2, LSL #+4
        B.N      ??ascii2dec_4
//  240 	}
//  241 	return result;
??ascii2dec_5:
        MOV      R0,R2
??ascii2dec_2:
        POP      {R4-R6}
          CFI R4 SameValue
          CFI R5 SameValue
          CFI R6 SameValue
          CFI CFA R13+0
        BX       LR               ;; return
          CFI EndBlock cfiBlock7
//  242 }
//  243 
//  244 

        SECTION `.text`:CODE:NOROOT(1)
          CFI Block cfiBlock8 Using cfiCommon0
          CFI Function _Z7mksSwapPfS_
          CFI NoCalls
        THUMB
//  245 void mksSwap(float *src,float *dst)
//  246 {
//  247 	float *temp;
//  248 	*temp = *src;
_Z7mksSwapPfS_:
        LDR      R3,[R0, #+0]
        STR      R3,[R2, #+0]
//  249 	*src = *dst;
        LDR      R3,[R1, #+0]
        STR      R3,[R0, #+0]
//  250 	*dst = *temp;
        LDR      R0,[R2, #+0]
        STR      R0,[R1, #+0]
//  251 }
        BX       LR               ;; return
          CFI EndBlock cfiBlock8
//  252 

        SECTION `.text`:CODE:NOROOT(1)
          CFI Block cfiBlock9 Using cfiCommon0
          CFI Function _Z12eprBurnValuePcPf
        THUMB
//  253 void eprBurnValue(char *string, float *data_addr)
//  254 {
_Z12eprBurnValuePcPf:
        PUSH     {R3-R7,LR}
          CFI R14 Frame(CFA, -4)
          CFI R7 Frame(CFA, -8)
          CFI R6 Frame(CFA, -12)
          CFI R5 Frame(CFA, -16)
          CFI R4 Frame(CFA, -20)
          CFI CFA R13+24
        MOV      R4,R0
        MOV      R5,R1
//  255   	char *tmp_index;
//  256 	tmp_index = (char *)strstr(cfg_buf, string);
        LDR.N    R6,??DataTable243_2
        MOV      R1,R4
        ADD      R0,R6,#+32
          CFI FunCall _Z6strstrPcPKc
        BL       _Z6strstrPcPKc
        MOVS     R7,R0
//  257 	if(tmp_index)
        BEQ.N    ??eprBurnValue_0
//  258 		{
//  259 		tmp_index += strlen(string);
        MOV      R0,R4
          CFI FunCall strlen
        BL       strlen
        ADDS     R7,R0,R7
//  260 		mksGetParameter(tmp_index);	
        MOV      R0,R7
          CFI FunCall _Z15mksGetParameterPc
        BL       _Z15mksGetParameterPc
//  261 		*data_addr = atof(cmd_code);
        ADDW     R0,R6,#+1060
          CFI FunCall atof
        BL       atof
          CFI FunCall __aeabi_d2f
        BL       __aeabi_d2f
        STR      R0,[R5, #+0]
//  262 		}
//  263 }
??eprBurnValue_0:
        POP      {R0,R4-R7,PC}    ;; return
          CFI EndBlock cfiBlock9

        SECTION `.text`:CODE:NOROOT(1)
          CFI Block cfiBlock10 Using cfiCommon0
          CFI Function _Z12eprBurnValuePcPj
        THUMB
//  264 void eprBurnValue(char *string, uint32_t *data_addr)
//  265 {
_Z12eprBurnValuePcPj:
        PUSH     {R3-R7,LR}
          CFI R14 Frame(CFA, -4)
          CFI R7 Frame(CFA, -8)
          CFI R6 Frame(CFA, -12)
          CFI R5 Frame(CFA, -16)
          CFI R4 Frame(CFA, -20)
          CFI CFA R13+24
        MOV      R4,R0
        MOV      R5,R1
//  266   	char *tmp_index;
//  267 	tmp_index = (char *)strstr(cfg_buf, string);
        LDR.N    R6,??DataTable243_2
        MOV      R1,R4
        ADD      R0,R6,#+32
          CFI FunCall _Z6strstrPcPKc
        BL       _Z6strstrPcPKc
        MOVS     R7,R0
//  268 	if(tmp_index)
        BEQ.N    ??eprBurnValue_1
//  269 		{
//  270 		tmp_index += strlen(string);
        MOV      R0,R4
          CFI FunCall strlen
        BL       strlen
        ADDS     R7,R0,R7
//  271 		mksGetParameter(tmp_index);	
        MOV      R0,R7
          CFI FunCall _Z15mksGetParameterPc
        BL       _Z15mksGetParameterPc
//  272 		*data_addr = atoi(cmd_code);
        ADDW     R0,R6,#+1060
          CFI FunCall atoi
        BL       atoi
        STR      R0,[R5, #+0]
//  273 		}
//  274 }
??eprBurnValue_1:
        POP      {R0,R4-R7,PC}    ;; return
          CFI EndBlock cfiBlock10

        SECTION `.text`:CODE:NOROOT(1)
          CFI Block cfiBlock11 Using cfiCommon0
          CFI Function _Z12eprBurnValuePcPft
        THUMB
//  275 void eprBurnValue(char *string, float *data_addr, uint16_t epr_addr)
//  276 {
_Z12eprBurnValuePcPft:
        PUSH     {R4-R8,LR}
          CFI R14 Frame(CFA, -4)
          CFI R8 Frame(CFA, -8)
          CFI R7 Frame(CFA, -12)
          CFI R6 Frame(CFA, -16)
          CFI R5 Frame(CFA, -20)
          CFI R4 Frame(CFA, -24)
          CFI CFA R13+24
        MOV      R4,R0
        MOV      R5,R1
        MOV      R6,R2
//  277   	char *tmp_index;
//  278 	tmp_index = (char *)strstr(cfg_buf, string);
        LDR.N    R7,??DataTable243_2
        MOV      R1,R4
        ADD      R0,R7,#+32
          CFI FunCall _Z6strstrPcPKc
        BL       _Z6strstrPcPKc
        MOV      R8,R0
//  279 	if(tmp_index)
        CMP      R8,#+0
        BEQ.N    ??eprBurnValue_2
//  280 		{
//  281 		tmp_index += strlen(string);
        MOV      R0,R4
          CFI FunCall strlen
        BL       strlen
        ADD      R8,R0,R8
//  282 		mksGetParameter(tmp_index);	
        MOV      R0,R8
          CFI FunCall _Z15mksGetParameterPc
        BL       _Z15mksGetParameterPc
//  283 		*data_addr = atof(cmd_code);
        ADDW     R0,R7,#+1060
          CFI FunCall atof
        BL       atof
          CFI FunCall __aeabi_d2f
        BL       __aeabi_d2f
        STR      R0,[R5, #+0]
//  284 		epr_write_data(epr_addr, (uint8_t *)data_addr,sizeof(float));
        MOVS     R2,#+4
        MOV      R1,R5
        MOV      R0,R6
        POP      {R4-R8,LR}
          CFI R4 SameValue
          CFI R5 SameValue
          CFI R6 SameValue
          CFI R7 SameValue
          CFI R8 SameValue
          CFI R14 SameValue
          CFI CFA R13+0
          CFI FunCall epr_write_data
        B.W      epr_write_data
          CFI R4 Frame(CFA, -24)
          CFI R5 Frame(CFA, -20)
          CFI R6 Frame(CFA, -16)
          CFI R7 Frame(CFA, -12)
          CFI R8 Frame(CFA, -8)
          CFI R14 Frame(CFA, -4)
          CFI CFA R13+24
//  285 		}
//  286 }
??eprBurnValue_2:
        POP      {R4-R8,PC}       ;; return
          CFI EndBlock cfiBlock11
//  287 

        SECTION `.text`:CODE:NOROOT(1)
          CFI Block cfiBlock12 Using cfiCommon0
          CFI Function _Z12eprBurnValuePcPht
        THUMB
//  288 void eprBurnValue(char *string, uint8_t *data_addr, uint16_t epr_addr)
//  289 {
_Z12eprBurnValuePcPht:
        PUSH     {R4-R8,LR}
          CFI R14 Frame(CFA, -4)
          CFI R8 Frame(CFA, -8)
          CFI R7 Frame(CFA, -12)
          CFI R6 Frame(CFA, -16)
          CFI R5 Frame(CFA, -20)
          CFI R4 Frame(CFA, -24)
          CFI CFA R13+24
        MOV      R4,R0
        MOV      R5,R1
        MOV      R6,R2
//  290   	char *tmp_index;
//  291 	tmp_index = (char *)strstr(cfg_buf, string);
        LDR.N    R7,??DataTable243_2
        MOV      R1,R4
        ADD      R0,R7,#+32
          CFI FunCall _Z6strstrPcPKc
        BL       _Z6strstrPcPKc
        MOV      R8,R0
//  292 	if(tmp_index)
        CMP      R8,#+0
        BEQ.N    ??eprBurnValue_3
//  293 		{
//  294 		tmp_index += strlen(string);
        MOV      R0,R4
          CFI FunCall strlen
        BL       strlen
        ADD      R8,R0,R8
//  295 		mksGetParameter(tmp_index);	
        MOV      R0,R8
          CFI FunCall _Z15mksGetParameterPc
        BL       _Z15mksGetParameterPc
//  296 		*data_addr = atoi(cmd_code);
        ADDW     R0,R7,#+1060
          CFI FunCall atoi
        BL       atoi
        STRB     R0,[R5, #+0]
//  297 		epr_write_data(epr_addr, data_addr,1);
        MOVS     R2,#+1
        MOV      R1,R5
        MOV      R0,R6
        POP      {R4-R8,LR}
          CFI R4 SameValue
          CFI R5 SameValue
          CFI R6 SameValue
          CFI R7 SameValue
          CFI R8 SameValue
          CFI R14 SameValue
          CFI CFA R13+0
          CFI FunCall epr_write_data
        B.W      epr_write_data
          CFI R4 Frame(CFA, -24)
          CFI R5 Frame(CFA, -20)
          CFI R6 Frame(CFA, -16)
          CFI R7 Frame(CFA, -12)
          CFI R8 Frame(CFA, -8)
          CFI R14 Frame(CFA, -4)
          CFI CFA R13+24
//  298 		}
//  299 }
??eprBurnValue_3:
        POP      {R4-R8,PC}       ;; return
          CFI EndBlock cfiBlock12

        SECTION `.text`:CODE:NOROOT(2)
        SECTION_TYPE SHT_PROGBITS, 0
        DATA
??DataTable238:
        DC8      0x2E, 0x0A, 0x00, 0x00

        SECTION `.text`:CODE:NOROOT(1)
          CFI Block cfiBlock13 Using cfiCommon0
          CFI Function _Z12eprBurnValuePcPst
        THUMB
//  300 void eprBurnValue(char *string, int16_t *data_addr, uint16_t epr_addr)
//  301 {
_Z12eprBurnValuePcPst:
        PUSH     {R4-R8,LR}
          CFI R14 Frame(CFA, -4)
          CFI R8 Frame(CFA, -8)
          CFI R7 Frame(CFA, -12)
          CFI R6 Frame(CFA, -16)
          CFI R5 Frame(CFA, -20)
          CFI R4 Frame(CFA, -24)
          CFI CFA R13+24
        MOV      R4,R0
        MOV      R5,R1
        MOV      R6,R2
//  302   	char *tmp_index;
//  303 	tmp_index = (char *)strstr(cfg_buf, string);
        LDR.N    R7,??DataTable243_2
        MOV      R1,R4
        ADD      R0,R7,#+32
          CFI FunCall _Z6strstrPcPKc
        BL       _Z6strstrPcPKc
        MOV      R8,R0
//  304 	if(tmp_index)
        CMP      R8,#+0
        BEQ.N    ??eprBurnValue_4
//  305 		{
//  306 		tmp_index += strlen(string);
        MOV      R0,R4
          CFI FunCall strlen
        BL       strlen
        ADD      R8,R0,R8
//  307 		mksGetParameter(tmp_index);	
        MOV      R0,R8
          CFI FunCall _Z15mksGetParameterPc
        BL       _Z15mksGetParameterPc
//  308 		*data_addr = atoi(cmd_code);
        ADDW     R0,R7,#+1060
          CFI FunCall atoi
        BL       atoi
        STRH     R0,[R5, #+0]
//  309 		epr_write_data(epr_addr, (uint8_t *)data_addr,sizeof(int16_t));
        MOVS     R2,#+2
        MOV      R1,R5
        MOV      R0,R6
        POP      {R4-R8,LR}
          CFI R4 SameValue
          CFI R5 SameValue
          CFI R6 SameValue
          CFI R7 SameValue
          CFI R8 SameValue
          CFI R14 SameValue
          CFI CFA R13+0
          CFI FunCall epr_write_data
        B.W      epr_write_data
          CFI R4 Frame(CFA, -24)
          CFI R5 Frame(CFA, -20)
          CFI R6 Frame(CFA, -16)
          CFI R7 Frame(CFA, -12)
          CFI R8 Frame(CFA, -8)
          CFI R14 Frame(CFA, -4)
          CFI CFA R13+24
//  310 		}
//  311 }
??eprBurnValue_4:
        POP      {R4-R8,PC}       ;; return
          CFI EndBlock cfiBlock13

        SECTION `.text`:CODE:NOROOT(1)
          CFI Block cfiBlock14 Using cfiCommon0
          CFI Function _Z12eprBurnValuePcPit
        THUMB
//  312 void eprBurnValue(char *string, int32_t *data_addr, uint16_t epr_addr)
//  313 {
_Z12eprBurnValuePcPit:
        PUSH     {R4-R8,LR}
          CFI R14 Frame(CFA, -4)
          CFI R8 Frame(CFA, -8)
          CFI R7 Frame(CFA, -12)
          CFI R6 Frame(CFA, -16)
          CFI R5 Frame(CFA, -20)
          CFI R4 Frame(CFA, -24)
          CFI CFA R13+24
        MOV      R4,R0
        MOV      R5,R1
        MOV      R6,R2
//  314   	char *tmp_index;
//  315 	tmp_index = (char *)strstr(cfg_buf, string);
        LDR.N    R7,??DataTable243_2
        MOV      R1,R4
        ADD      R0,R7,#+32
          CFI FunCall _Z6strstrPcPKc
        BL       _Z6strstrPcPKc
        MOV      R8,R0
//  316 	if(tmp_index)
        CMP      R8,#+0
        BEQ.N    ??eprBurnValue_5
//  317 		{
//  318 		tmp_index += strlen(string);
        MOV      R0,R4
          CFI FunCall strlen
        BL       strlen
        ADD      R8,R0,R8
//  319 		mksGetParameter(tmp_index);	
        MOV      R0,R8
          CFI FunCall _Z15mksGetParameterPc
        BL       _Z15mksGetParameterPc
//  320 		*data_addr = atoi(cmd_code);
        ADDW     R0,R7,#+1060
          CFI FunCall atoi
        BL       atoi
        STR      R0,[R5, #+0]
//  321 		epr_write_data(epr_addr, (uint8_t *)data_addr,sizeof(int32_t));
        MOVS     R2,#+4
        MOV      R1,R5
        MOV      R0,R6
        POP      {R4-R8,LR}
          CFI R4 SameValue
          CFI R5 SameValue
          CFI R6 SameValue
          CFI R7 SameValue
          CFI R8 SameValue
          CFI R14 SameValue
          CFI CFA R13+0
          CFI FunCall epr_write_data
        B.W      epr_write_data
          CFI R4 Frame(CFA, -24)
          CFI R5 Frame(CFA, -20)
          CFI R6 Frame(CFA, -16)
          CFI R7 Frame(CFA, -12)
          CFI R8 Frame(CFA, -8)
          CFI R14 Frame(CFA, -4)
          CFI CFA R13+24
//  322 		}
//  323 }
??eprBurnValue_5:
        POP      {R4-R8,PC}       ;; return
          CFI EndBlock cfiBlock14
//  324 

        SECTION `.text`:CODE:NOROOT(1)
          CFI Block cfiBlock15 Using cfiCommon0
          CFI Function _Z14flashBurnValuePct
        THUMB
//  325 void flashBurnValue(char *string,uint16_t flash_addr)
//  326 {
_Z14flashBurnValuePct:
        PUSH     {R3-R7,LR}
          CFI R14 Frame(CFA, -4)
          CFI R7 Frame(CFA, -8)
          CFI R6 Frame(CFA, -12)
          CFI R5 Frame(CFA, -16)
          CFI R4 Frame(CFA, -20)
          CFI CFA R13+24
        MOV      R4,R0
        MOV      R5,R1
//  327   	char *tmp_index;
//  328 	tmp_index = (char *)strstr(cfg_buf, string);
        LDR.N    R6,??DataTable243_2
        MOV      R1,R4
        ADD      R0,R6,#+32
          CFI FunCall _Z6strstrPcPKc
        BL       _Z6strstrPcPKc
        MOVS     R7,R0
//  329 	if(tmp_index)
        BEQ.N    ??flashBurnValue_0
//  330 	{
//  331 		tmp_index += strlen(string);
        MOV      R0,R4
          CFI FunCall strlen
        BL       strlen
        ADDS     R7,R0,R7
//  332 		mksGetParameterToFlash(tmp_index);	
        MOV      R0,R7
          CFI FunCall _Z22mksGetParameterToFlashPc
        BL       _Z22mksGetParameterToFlashPc
//  333 		SPI_FLASH_BufferWrite((u8 *)cmd_code, flash_addr,strlen(cmd_code)+1);//加1保证最后一个字节为0
        ADDW     R4,R6,#+1060
        MOV      R0,R4
          CFI FunCall strlen
        BL       strlen
        ADDS     R2,R0,#+1
        UXTH     R2,R2
        MOV      R1,R5
        MOV      R0,R4
        POP      {R3-R7,LR}
          CFI R4 SameValue
          CFI R5 SameValue
          CFI R6 SameValue
          CFI R7 SameValue
          CFI R14 SameValue
          CFI CFA R13+0
          CFI FunCall SPI_FLASH_BufferWrite
        B.W      SPI_FLASH_BufferWrite
          CFI R4 Frame(CFA, -20)
          CFI R5 Frame(CFA, -16)
          CFI R6 Frame(CFA, -12)
          CFI R7 Frame(CFA, -8)
          CFI R14 Frame(CFA, -4)
          CFI CFA R13+24
//  334 	}
//  335 }
??flashBurnValue_0:
        POP      {R0,R4-R7,PC}    ;; return
          CFI EndBlock cfiBlock15
//  336 

        SECTION `.text`:CODE:NOROOT(1)
          CFI Block cfiBlock16 Using cfiCommon0
          CFI Function _Z12hexBurnValuePcPit
        THUMB
//  337 void hexBurnValue(char *string, int32_t *data_addr, uint16_t epr_addr)
//  338 {
_Z12hexBurnValuePcPit:
        PUSH     {R4-R8,LR}
          CFI R14 Frame(CFA, -4)
          CFI R8 Frame(CFA, -8)
          CFI R7 Frame(CFA, -12)
          CFI R6 Frame(CFA, -16)
          CFI R5 Frame(CFA, -20)
          CFI R4 Frame(CFA, -24)
          CFI CFA R13+24
        MOV      R4,R0
        MOV      R5,R1
        MOV      R6,R2
//  339   	char *tmp_index;
//  340 	tmp_index = (char *)strstr(cfg_buf, string);
        LDR.N    R7,??DataTable243_2
        MOV      R1,R4
        ADD      R0,R7,#+32
          CFI FunCall _Z6strstrPcPKc
        BL       _Z6strstrPcPKc
        MOV      R8,R0
//  341 	if(tmp_index)
        CMP      R8,#+0
        BEQ.N    ??hexBurnValue_0
//  342 	{
//  343 		tmp_index += strlen(string);
        MOV      R0,R4
          CFI FunCall strlen
        BL       strlen
        ADD      R8,R0,R8
//  344 		mksGetParameter(tmp_index);	
        MOV      R0,R8
          CFI FunCall _Z15mksGetParameterPc
        BL       _Z15mksGetParameterPc
//  345 		*data_addr = ascii2dec(&cmd_code[2],6);
        MOVS     R1,#+6
        ADDW     R0,R7,#+1062
          CFI FunCall _Z9ascii2decPcc
        BL       _Z9ascii2decPcc
        STR      R0,[R5, #+0]
//  346 		epr_write_data(epr_addr, (uint8_t *)data_addr,sizeof(int32_t));
        MOVS     R2,#+4
        MOV      R1,R5
        MOV      R0,R6
        POP      {R4-R8,LR}
          CFI R4 SameValue
          CFI R5 SameValue
          CFI R6 SameValue
          CFI R7 SameValue
          CFI R8 SameValue
          CFI R14 SameValue
          CFI CFA R13+0
          CFI FunCall epr_write_data
        B.W      epr_write_data
          CFI R4 Frame(CFA, -24)
          CFI R5 Frame(CFA, -20)
          CFI R6 Frame(CFA, -16)
          CFI R7 Frame(CFA, -12)
          CFI R8 Frame(CFA, -8)
          CFI R14 Frame(CFA, -4)
          CFI CFA R13+24
//  347 	}	
//  348 }
??hexBurnValue_0:
        POP      {R4-R8,PC}       ;; return
          CFI EndBlock cfiBlock16
//  349 

        SECTION `.text`:CODE:NOROOT(1)
          CFI Block cfiBlock17 Using cfiCommon0
          CFI Function _Z21eprBurnValue_levelingPcPiS0_tt
        THUMB
//  350 void eprBurnValue_leveling(char *string, int32_t *data_addr_x, int32_t *data_addr_y,uint16_t epr_addr_x,uint16_t epr_addr_y)
//  351 {
_Z21eprBurnValue_levelingPcPiS0_tt:
        PUSH     {R3-R9,LR}
          CFI R14 Frame(CFA, -4)
          CFI R9 Frame(CFA, -8)
          CFI R8 Frame(CFA, -12)
          CFI R7 Frame(CFA, -16)
          CFI R6 Frame(CFA, -20)
          CFI R5 Frame(CFA, -24)
          CFI R4 Frame(CFA, -28)
          CFI CFA R13+32
        MOV      R7,R0
        MOV      R4,R1
        MOV      R5,R2
        MOV      R6,R3
//  352   	char *tmp_index;
//  353 	char *p;
//  354 	
//  355 	tmp_index = (char *)strstr(cfg_buf, string);
        LDR.W    R9,??DataTable243_2
        MOV      R1,R7
        ADD      R0,R9,#+32
          CFI FunCall _Z6strstrPcPKc
        BL       _Z6strstrPcPKc
        MOV      R8,R0
//  356 	if(tmp_index)
        CMP      R8,#+0
        BEQ.N    ??eprBurnValue_leveling_0
//  357 	{
//  358 		tmp_index += strlen(string);
        MOV      R0,R7
          CFI FunCall strlen
        BL       strlen
        ADD      R8,R0,R8
//  359 		mksGetParameter(tmp_index);
        MOV      R0,R8
          CFI FunCall _Z15mksGetParameterPc
        BL       _Z15mksGetParameterPc
//  360 
//  361 		
//  362 		memset(cmd_code,0,sizeof(cmd_code));
        ADDW     R7,R9,#+1060
        MOVS     R2,#+201
        MOVS     R1,#+0
        MOV      R0,R7
          CFI FunCall memset
        BL       memset
//  363 		p = cmd_code;
        MOV      R0,R7
//  364 		while(((*tmp_index) != ','))
??eprBurnValue_leveling_1:
        LDRSB    R1,[R8, #+0]
        CMP      R1,#+44
        BEQ.N    ??eprBurnValue_leveling_2
//  365 		{
//  366 			*p++ = *tmp_index++;
        LDRB     R1,[R8], #+1
        STRB     R1,[R0], #+1
//  367 			if((p- cmd_code) > 20) 
        SUBS     R1,R0,R7
        CMP      R1,#+21
        BLT.N    ??eprBurnValue_leveling_1
//  368 				break;
//  369 		}
//  370 		
//  371 		*data_addr_x = atoi(cmd_code);
??eprBurnValue_leveling_2:
        MOV      R0,R7
          CFI FunCall atoi
        BL       atoi
        STR      R0,[R4, #+0]
//  372 		epr_write_data(epr_addr_x, (uint8_t *)data_addr_x,sizeof(int16_t));
        MOVS     R2,#+2
        MOV      R1,R4
        MOV      R0,R6
          CFI FunCall epr_write_data
        BL       epr_write_data
//  373 
//  374 			memset(cmd_code,0,sizeof(cmd_code));
        MOVS     R2,#+201
        MOVS     R1,#+0
        MOV      R0,R7
          CFI FunCall memset
        BL       memset
//  375 			p = cmd_code;
        MOV      R0,R7
//  376 			tmp_index++;
        ADD      R8,R8,#+1
//  377 			while(((*tmp_index) != '\r')&&((*tmp_index) != '\n')&&((*tmp_index) != '#')&&((*tmp_index) != ' '))
??eprBurnValue_leveling_3:
        LDRSB    R1,[R8, #+0]
        CMP      R1,#+13
        BEQ.N    ??eprBurnValue_leveling_4
        CMP      R1,#+10
        BEQ.N    ??eprBurnValue_leveling_4
        CMP      R1,#+35
        BEQ.N    ??eprBurnValue_leveling_4
        CMP      R1,#+32
        BEQ.N    ??eprBurnValue_leveling_4
//  378 			{
//  379 				*p++ = *tmp_index++;
        LDRB     R1,[R8], #+1
        STRB     R1,[R0], #+1
//  380 
//  381 				if((p- cmd_code) >= 20)
        SUBS     R1,R0,R7
        CMP      R1,#+20
        BLT.N    ??eprBurnValue_leveling_3
//  382 				{
//  383 					break;
//  384 				} 					
//  385 			}
//  386 			*data_addr_y = atoi(cmd_code);
??eprBurnValue_leveling_4:
        MOV      R0,R7
          CFI FunCall atoi
        BL       atoi
        STR      R0,[R5, #+0]
//  387 			epr_write_data(epr_addr_y, (uint8_t *)data_addr_y,sizeof(int16_t));	
        MOVS     R2,#+2
        MOV      R1,R5
        LDR      R0,[SP, #+32]
        POP      {R3-R9,LR}
          CFI R4 SameValue
          CFI R5 SameValue
          CFI R6 SameValue
          CFI R7 SameValue
          CFI R8 SameValue
          CFI R9 SameValue
          CFI R14 SameValue
          CFI CFA R13+0
          CFI FunCall epr_write_data
        B.W      epr_write_data
          CFI R4 Frame(CFA, -28)
          CFI R5 Frame(CFA, -24)
          CFI R6 Frame(CFA, -20)
          CFI R7 Frame(CFA, -16)
          CFI R8 Frame(CFA, -12)
          CFI R9 Frame(CFA, -8)
          CFI R14 Frame(CFA, -4)
          CFI CFA R13+32
//  388 	}
//  389 }
??eprBurnValue_leveling_0:
        POP      {R0,R4-R9,PC}    ;; return
          CFI EndBlock cfiBlock17

        SECTION `.text`:CODE:NOROOT(2)
        SECTION_TYPE SHT_PROGBITS, 0
        DATA
??DataTable243:
        DC32     mksTmp+0x424

        SECTION `.text`:CODE:NOROOT(2)
        SECTION_TYPE SHT_PROGBITS, 0
        DATA
??DataTable243_1:
        DC32     SD_Path

        SECTION `.text`:CODE:NOROOT(2)
        SECTION_TYPE SHT_PROGBITS, 0
        DATA
??DataTable243_2:
        DC32     mksTmp

        SECTION `.text`:CODE:NOROOT(2)
        SECTION_TYPE SHT_PROGBITS, 0
        DATA
??DataTable243_3:
        DC32     gCfgItems

        SECTION `.text`:CODE:NOROOT(2)
        SECTION_TYPE SHT_PROGBITS, 0
        DATA
??DataTable243_4:
        DC32     Serial3
//  390 

        SECTION `.text`:CODE:NOROOT(2)
          CFI Block cfiBlock18 Using cfiCommon0
          CFI Function _ZN10CardReader16mksEepromRefreshEv
        THUMB
//  391 void CardReader::mksEepromRefresh()
//  392 {
_ZN10CardReader16mksEepromRefreshEv:
        PUSH     {R3-R7,LR}
          CFI R14 Frame(CFA, -4)
          CFI R7 Frame(CFA, -8)
          CFI R6 Frame(CFA, -12)
          CFI R5 Frame(CFA, -16)
          CFI R4 Frame(CFA, -20)
          CFI CFA R13+24
//  393 	char *tmp_index;
//  394 /*------------------------判断是否擦除EEPROM---------------------------------*/
//  395 /*
//  396 >ERASE_EEPROM 1		#1：配置前先擦除EEPROM; 0：配置前不擦除EEPROM;
//  397 */
//  398 	uint32_t erase_data = 0xffffffff;
//  399     mksTmp.erase_eeprom = 0;
        LDR.W    R4,??mksEepromRefresh_0
        MOVS     R0,#+0
        STR      R0,[R4, #+20]
//  400 
//  401 	eprBurnValue(">ERASE_EEPROM",&mksTmp.erase_eeprom);
        ADD      R1,R4,#+20
        LDR.W    R0,??mksEepromRefresh_0+0x4
          CFI FunCall _Z12eprBurnValuePcPj
        BL       _Z12eprBurnValuePcPj
//  402                 
//  403 	if(mksTmp.erase_eeprom)
        LDR      R0,[R4, #+20]
        CMP      R0,#+0
        BEQ.N    ??mksEepromRefresh_1
//  404 	{
//  405 		mksTmp.erase_eeprom = 0;
        MOVS     R0,#+0
        STR      R0,[R4, #+20]
//  406 		for(int i=0;i<512;i++)
        MOV      R5,R0
        B.N      ??mksEepromRefresh_2
//  407            epr_write_data(i*4, (uint8_t *)erase_data, sizeof(erase_data));
??mksEepromRefresh_3:
        MOVS     R2,#+4
        MOV      R1,#-1
        LSLS     R0,R5,#+2
        UXTH     R0,R0
          CFI FunCall epr_write_data
        BL       epr_write_data
        ADDS     R5,R5,#+1
??mksEepromRefresh_2:
        CMP      R5,#+512
        BLT.N    ??mksEepromRefresh_3
//  408 	}
//  409 	
//  410 /*------------------------Marlin 自带参数配置 begin---------------------------------*/
//  411 
//  412 //DEFAULT_AXIS_STEPS_PER_UNIT
//  413         eprBurnValue(">DEFAULT_X_STEPS_PER_UNIT",&planner.axis_steps_per_mm[X_AXIS]);
??mksEepromRefresh_1:
        LDR.W    R5,??mksEepromRefresh_0+0x8
        MOV      R1,R5
        LDR.W    R0,??mksEepromRefresh_0+0xC
          CFI FunCall _Z12eprBurnValuePcPf
        BL       _Z12eprBurnValuePcPf
//  414         eprBurnValue(">DEFAULT_Y_STEPS_PER_UNIT",&planner.axis_steps_per_mm[Y_AXIS]);
        ADDS     R1,R5,#+4
        LDR.W    R0,??mksEepromRefresh_0+0x10
          CFI FunCall _Z12eprBurnValuePcPf
        BL       _Z12eprBurnValuePcPf
//  415         eprBurnValue(">DEFAULT_Z_STEPS_PER_UNIT",&planner.axis_steps_per_mm[Z_AXIS]);
        ADD      R1,R5,#+8
        LDR.W    R0,??mksEepromRefresh_0+0x14
          CFI FunCall _Z12eprBurnValuePcPf
        BL       _Z12eprBurnValuePcPf
//  416         eprBurnValue(">DEFAULT_E0_STEPS_PER_UNIT",&planner.axis_steps_per_mm[E_AXIS]);
        ADD      R1,R5,#+12
        LDR.W    R0,??mksEepromRefresh_0+0x18
          CFI FunCall _Z12eprBurnValuePcPf
        BL       _Z12eprBurnValuePcPf
//  417         eprBurnValue(">DEFAULT_E1_STEPS_PER_UNIT",&planner.axis_steps_per_mm[XYZE]);
        ADD      R1,R5,#+16
        LDR.W    R0,??mksEepromRefresh_0+0x1C
          CFI FunCall _Z12eprBurnValuePcPf
        BL       _Z12eprBurnValuePcPf
//  418 //DEFAULT_MAX_FEEDRATE
//  419         eprBurnValue(">DEFAULT_X_MAX_FEEDRATE",&planner.max_feedrate_mm_s[X_AXIS]);
        LDR.W    R5,??mksEepromRefresh_0+0x20
        MOV      R1,R5
        LDR.W    R0,??mksEepromRefresh_0+0x24
          CFI FunCall _Z12eprBurnValuePcPf
        BL       _Z12eprBurnValuePcPf
//  420         eprBurnValue(">DEFAULT_Y_MAX_FEEDRATE",&planner.max_feedrate_mm_s[Y_AXIS]);
        ADDS     R1,R5,#+4
        LDR.W    R0,??mksEepromRefresh_0+0x28
          CFI FunCall _Z12eprBurnValuePcPf
        BL       _Z12eprBurnValuePcPf
//  421         eprBurnValue(">DEFAULT_Z_MAX_FEEDRATE",&planner.max_feedrate_mm_s[Z_AXIS]);
        ADD      R1,R5,#+8
        LDR.W    R0,??mksEepromRefresh_0+0x2C
          CFI FunCall _Z12eprBurnValuePcPf
        BL       _Z12eprBurnValuePcPf
//  422 		
//  423         eprBurnValue(">DEFAULT_E0_MAX_FEEDRATE",&planner.max_feedrate_mm_s[E_AXIS]);
        ADD      R1,R5,#+12
        LDR.W    R0,??mksEepromRefresh_0+0x30
          CFI FunCall _Z12eprBurnValuePcPf
        BL       _Z12eprBurnValuePcPf
//  424 		eprBurnValue(">DEFAULT_E1_MAX_FEEDRATE",&planner.max_feedrate_mm_s[XYZE]);
        ADD      R1,R5,#+16
        LDR.W    R0,??mksEepromRefresh_0+0x34
          CFI FunCall _Z12eprBurnValuePcPf
        BL       _Z12eprBurnValuePcPf
//  425 	
//  426 //DEFAULT_MAX_ACCELERATION
//  427         eprBurnValue(">DEFAULT_X_MAX_ACCELERATION",(uint32_t *)&planner.max_acceleration_mm_per_s2[X_AXIS]);
        LDR.W    R5,??mksEepromRefresh_0+0x38
        MOV      R1,R5
        LDR.W    R0,??mksEepromRefresh_0+0x3C
          CFI FunCall _Z12eprBurnValuePcPj
        BL       _Z12eprBurnValuePcPj
//  428         eprBurnValue(">DEFAULT_Y_MAX_ACCELERATION",(uint32_t *)&planner.max_acceleration_mm_per_s2[Y_AXIS]);
        ADDS     R1,R5,#+4
        LDR.W    R0,??mksEepromRefresh_0+0x40
          CFI FunCall _Z12eprBurnValuePcPj
        BL       _Z12eprBurnValuePcPj
//  429         eprBurnValue(">DEFAULT_Z_MAX_ACCELERATION",(uint32_t *)&planner.max_acceleration_mm_per_s2[Z_AXIS]);
        ADD      R1,R5,#+8
        LDR.W    R0,??mksEepromRefresh_0+0x44
          CFI FunCall _Z12eprBurnValuePcPj
        BL       _Z12eprBurnValuePcPj
//  430         eprBurnValue(">DEFAULT_E0_MAX_ACCELERATION",(uint32_t *)&planner.max_acceleration_mm_per_s2[E_AXIS]);
        ADD      R1,R5,#+12
        LDR.W    R0,??DataTable244
          CFI FunCall _Z12eprBurnValuePcPj
        BL       _Z12eprBurnValuePcPj
//  431 		eprBurnValue(">DEFAULT_E1_MAX_ACCELERATION",(uint32_t *)&planner.max_acceleration_mm_per_s2[XYZE]);
        ADD      R1,R5,#+16
        LDR.W    R0,??DataTable244_1
          CFI FunCall _Z12eprBurnValuePcPj
        BL       _Z12eprBurnValuePcPj
//  432 
//  433 //DEFAULT_ACCELERATION
//  434 	eprBurnValue(">DEFAULT_ACCELERATION",&planner.acceleration);
        LDR.W    R1,??DataTable244_2
        LDR.W    R0,??DataTable244_3
          CFI FunCall _Z12eprBurnValuePcPf
        BL       _Z12eprBurnValuePcPf
//  435 //DEFAULT_RETRACT_ACCELERATION
//  436 	eprBurnValue(">DEFAULT_RETRACT_ACCELERATION",&planner.retract_acceleration);
        LDR.W    R1,??DataTable244_4
        LDR.W    R0,??DataTable244_5
          CFI FunCall _Z12eprBurnValuePcPf
        BL       _Z12eprBurnValuePcPf
//  437 //DEFAULT_TRAVEL_ACCELERATION	
//  438 	eprBurnValue(">DEFAULT_TRAVEL_ACCELERATION",&planner.travel_acceleration);
        LDR.W    R1,??DataTable244_6
        LDR.W    R0,??DataTable244_7
          CFI FunCall _Z12eprBurnValuePcPf
        BL       _Z12eprBurnValuePcPf
//  439 //DEFAULT_MINIMUMFEEDRATE
//  440 	eprBurnValue(">DEFAULT_MINIMUMFEEDRATE",&planner.min_feedrate_mm_s);
        LDR.W    R1,??DataTable244_8
        LDR.W    R0,??DataTable244_9
          CFI FunCall _Z12eprBurnValuePcPf
        BL       _Z12eprBurnValuePcPf
//  441 //DEFAULT_MINSEGMENTTIME
//  442 	eprBurnValue(">DEFAULT_MINSEGMENTTIME",(uint32_t *)&planner.min_segment_time_us);
        LDR.W    R1,??DataTable244_10
        LDR.W    R0,??DataTable244_11
          CFI FunCall _Z12eprBurnValuePcPj
        BL       _Z12eprBurnValuePcPj
//  443 //DEFAULT_MINTRAVELFEEDRATE
//  444 	eprBurnValue(">DEFAULT_MINTRAVELFEEDRATE",&planner.min_travel_feedrate_mm_s);
        LDR.W    R1,??DataTable244_12
        LDR.W    R0,??DataTable244_13
          CFI FunCall _Z12eprBurnValuePcPf
        BL       _Z12eprBurnValuePcPf
//  445 // DEFAULT_JERK   
//  446 	eprBurnValue(">DEFAULT_XJERK",&planner.max_jerk[X_AXIS]);
        LDR.W    R5,??DataTable244_14
        MOV      R1,R5
        LDR.W    R0,??DataTable244_15
          CFI FunCall _Z12eprBurnValuePcPf
        BL       _Z12eprBurnValuePcPf
//  447 	eprBurnValue(">DEFAULT_YJERK",&planner.max_jerk[Y_AXIS]);
        ADDS     R1,R5,#+4
        LDR.W    R0,??DataTable244_16
          CFI FunCall _Z12eprBurnValuePcPf
        BL       _Z12eprBurnValuePcPf
//  448 	eprBurnValue(">DEFAULT_ZJERK",&planner.max_jerk[Z_AXIS]);
        ADD      R1,R5,#+8
        LDR.N    R0,??mksEepromRefresh_4+0x4
          CFI FunCall _Z12eprBurnValuePcPf
        BL       _Z12eprBurnValuePcPf
//  449 	eprBurnValue(">DEFAULT_EJERK",&planner.max_jerk[E_AXIS]);
        ADD      R1,R5,#+12
        LDR.N    R0,??mksEepromRefresh_4+0x8
          CFI FunCall _Z12eprBurnValuePcPf
        BL       _Z12eprBurnValuePcPf
//  450 
//  451 //DEFAULT_Kp
//  452 	eprBurnValue(">DEFAULT_Kp",&thermalManager.Kp);
        LDR.N    R1,??mksEepromRefresh_4+0xC
        LDR.N    R0,??mksEepromRefresh_4+0x10
          CFI FunCall _Z12eprBurnValuePcPf
        BL       _Z12eprBurnValuePcPf
//  453 //DEFAULT_Ki
//  454 	tmp_index = (char *)strstr(cfg_buf, ">DEFAULT_Ki");
        LDR.N    R1,??mksEepromRefresh_4+0x14
        ADD      R0,R4,#+32
          CFI FunCall _Z6strstrPcPKc
        BL       _Z6strstrPcPKc
//  455 	if(tmp_index)
        ADDW     R5,R4,#+1060
        CMP      R0,#+0
        BEQ.N    ??mksEepromRefresh_5
//  456 		{
//  457 		tmp_index += strlen(">DEFAULT_Ki");
//  458 		mksGetParameter(tmp_index);	
        ADDS     R0,R0,#+11
          CFI FunCall _Z15mksGetParameterPc
        BL       _Z15mksGetParameterPc
//  459 		thermalManager.Ki = scalePID_i(atof(cmd_code));
        MOV      R0,R5
          CFI FunCall atof
        BL       atof
        LDR.W    R2,??DataTable244_17  ;; 0x88e368f1
        LDR.W    R3,??DataTable244_18  ;; 0x3fc4f8b5
          CFI FunCall __aeabi_dmul
        BL       __aeabi_dmul
          CFI FunCall __aeabi_d2f
        BL       __aeabi_d2f
        LDR.N    R1,??mksEepromRefresh_4+0x18
        STR      R0,[R1, #+0]
//  460 		}
//  461 //DEFAULT_Kd
//  462 	tmp_index = (char *)strstr(cfg_buf, ">DEFAULT_Kd");
??mksEepromRefresh_5:
        LDR.N    R1,??mksEepromRefresh_4+0x1C
        ADD      R0,R4,#+32
          CFI FunCall _Z6strstrPcPKc
        BL       _Z6strstrPcPKc
//  463 	if(tmp_index)
        CMP      R0,#+0
        BEQ.N    ??mksEepromRefresh_6
//  464 		{
//  465 		tmp_index += strlen(">DEFAULT_Kd");
//  466 		mksGetParameter(tmp_index);	
        ADDS     R0,R0,#+11
          CFI FunCall _Z15mksGetParameterPc
        BL       _Z15mksGetParameterPc
//  467 		thermalManager.Kd = scalePID_d(atof(cmd_code));
        MOV      R0,R5
          CFI FunCall atof
        BL       atof
        LDR.W    R2,??DataTable244_17  ;; 0x88e368f1
        LDR.W    R3,??DataTable244_18  ;; 0x3fc4f8b5
          CFI FunCall __aeabi_ddiv
        BL       __aeabi_ddiv
          CFI FunCall __aeabi_d2f
        BL       __aeabi_d2f
        LDR.N    R1,??mksEepromRefresh_4+0x20
        STR      R0,[R1, #+0]
//  468 		}
//  469 #if 1//def USE_MKS_WIFI 
//  470 /*wifi paras*/	
//  471 	tmp_index = (char *)strstr(cfg_buf, ">CFG_WIFI_MODE");
??mksEepromRefresh_6:
        LDR.N    R1,??mksEepromRefresh_4+0x24
        ADD      R0,R4,#+32
          CFI FunCall _Z6strstrPcPKc
        BL       _Z6strstrPcPKc
//  472 	if(tmp_index)
        LDR.N    R6,??mksEepromRefresh_4+0x28
        CMP      R0,#+0
        BEQ.N    ??mksEepromRefresh_7
//  473 	{
//  474 		/*
//  475 		if( tmp_index[strlen(">CFG_WIFI_MODE")] == '1')
//  476 		{
//  477 			gCfgItems.wifi_mode_sel = 1;	
//  478 		}
//  479 		else
//  480 		{
//  481 			gCfgItems.wifi_mode_sel = 2;
//  482 		}		
//  483 
//  484 		*/
//  485 		tmp_index += strlen(">CFG_WIFI_MODE");
//  486 		mksGetParameter(tmp_index);
        ADDS     R0,R0,#+14
          CFI FunCall _Z15mksGetParameterPc
        BL       _Z15mksGetParameterPc
//  487 		gCfgItems.wifi_mode_sel = atoi(cmd_code);
        MOV      R0,R5
          CFI FunCall atoi
        BL       atoi
        STRB     R0,[R6, #+555]
//  488         if(gCfgItems.wifi_mode_sel != 1)
        LDRB     R0,[R6, #+555]
        CMP      R0,#+1
        BEQ.N    ??mksEepromRefresh_8
//  489 		{
//  490 			gCfgItems.wifi_mode_sel = 2;
        MOVS     R0,#+2
        STRB     R0,[R6, #+555]
//  491 		}		
//  492         
//  493 		cfg_wifi_flag = 1;
??mksEepromRefresh_8:
        MOVS     R0,#+1
        LDR.N    R1,??mksEepromRefresh_4+0x2C
        STR      R0,[R1, #+0]
//  494 	}
//  495 
//  496 	tmp_index = (char *)strstr(cfg_buf, ">CFG_WIFI_AP_NAME");
??mksEepromRefresh_7:
        LDR.N    R1,??mksEepromRefresh_4+0x30
        ADD      R0,R4,#+32
          CFI FunCall _Z6strstrPcPKc
        BL       _Z6strstrPcPKc
//  497 	if(tmp_index)
        CMP      R0,#+0
        BEQ.N    ??mksEepromRefresh_9
//  498 	{
//  499 		tmp_index += strlen(">CFG_WIFI_AP_NAME");
//  500 		mksGetParameter(tmp_index);	
        ADDS     R0,R0,#+17
          CFI FunCall _Z15mksGetParameterPc
        BL       _Z15mksGetParameterPc
//  501 		memset((char *)gCfgItems.wifi_ap, 0, sizeof(gCfgItems.wifi_ap));
        MOVS     R2,#+32
        MOVS     R1,#+0
        ADDW     R0,R6,#+459
          CFI FunCall memset
        BL       memset
//  502 		strncpy((char *)gCfgItems.wifi_ap,  cmd_code, sizeof(gCfgItems.wifi_ap));
        MOVS     R2,#+32
        MOV      R1,R5
        ADDW     R0,R6,#+459
          CFI FunCall strncpy
        BL       strncpy
//  503 		cfg_wifi_flag = 1;
        MOVS     R0,#+1
        LDR.N    R1,??mksEepromRefresh_4+0x2C
        STR      R0,[R1, #+0]
//  504 	}
//  505 
//  506 	tmp_index = (char *)strstr(cfg_buf, ">CFG_WIFI_KEY_CODE");
??mksEepromRefresh_9:
        LDR.N    R1,??mksEepromRefresh_4+0x34
        ADD      R0,R4,#+32
          CFI FunCall _Z6strstrPcPKc
        BL       _Z6strstrPcPKc
//  507 	if(tmp_index)
        CMP      R0,#+0
        BEQ.N    ??mksEepromRefresh_10
//  508 	{
//  509 		tmp_index += strlen(">CFG_WIFI_KEY_CODE");
//  510 		mksGetParameter(tmp_index);	
        ADDS     R0,R0,#+18
          CFI FunCall _Z15mksGetParameterPc
        BL       _Z15mksGetParameterPc
//  511 		memset((char *)gCfgItems.wifi_key, 0, sizeof(gCfgItems.wifi_key));
        MOVS     R2,#+64
        MOVS     R1,#+0
        ADDW     R0,R6,#+491
          CFI FunCall memset
        BL       memset
//  512 		strncpy((char *)gCfgItems.wifi_key,  cmd_code, sizeof(gCfgItems.wifi_key));
        MOVS     R2,#+64
        MOV      R1,R5
        ADDW     R0,R6,#+491
          CFI FunCall strncpy
        BL       strncpy
//  513 		cfg_wifi_flag = 1;
        MOVS     R0,#+1
        LDR.N    R1,??mksEepromRefresh_4+0x2C
        STR      R0,[R1, #+0]
//  514 	}
//  515 /*
//  516 	tmp_index = (char *)strstr(cfg_buf, ">CFG_CLOUD_ENABLE");
//  517 	if(tmp_index)
//  518 	{
//  519 		if( tmp_index[strlen(">CFG_CLOUD_ENABLE")] == '1')
//  520 		{
//  521 			gCfgItems.cloud_enable = 1;	
//  522 		}
//  523 		else
//  524 		{
//  525 			gCfgItems.cloud_enable = 0;
//  526 		}					
//  527 		cfg_cloud_flag = 1;
//  528 	}
//  529 */
//  530 	eprBurnValue(">CFG_CLOUD_ENABLE", (uint8_t *)&gCfgItems.cloud_enable, EPR_ENABLE_CLOUD);
??mksEepromRefresh_10:
        MOVW     R2,#+1827
        ADDW     R1,R6,#+557
        LDR.N    R0,??mksEepromRefresh_4+0x38
          CFI FunCall _Z12eprBurnValuePcPht
        BL       _Z12eprBurnValuePcPht
//  531 
//  532 	tmp_index = (char *)strstr(cfg_buf, ">CFG_WIFI_CLOUD_HOST");
        LDR.N    R1,??mksEepromRefresh_4+0x3C
        ADD      R0,R4,#+32
          CFI FunCall _Z6strstrPcPKc
        BL       _Z6strstrPcPKc
//  533 	if(tmp_index)
        CMP      R0,#+0
        BEQ.N    ??mksEepromRefresh_11
//  534 	{
//  535 		tmp_index += strlen(">CFG_WIFI_CLOUD_HOST");
//  536 		mksGetParameter(tmp_index);	
        ADDS     R0,R0,#+20
          CFI FunCall _Z15mksGetParameterPc
        BL       _Z15mksGetParameterPc
//  537 		memset((char *)gCfgItems.cloud_hostUrl, 0, sizeof(gCfgItems.cloud_hostUrl));
        MOVS     R2,#+96
        MOVS     R1,#+0
        ADDW     R0,R6,#+558
          CFI FunCall memset
        BL       memset
//  538 		strncpy((char *)gCfgItems.cloud_hostUrl,  cmd_code, sizeof(gCfgItems.cloud_hostUrl));
        MOVS     R2,#+96
        MOV      R1,R5
        ADDW     R0,R6,#+558
          CFI FunCall strncpy
        BL       strncpy
//  539 					
//  540 		cfg_cloud_flag = 1;
        MOVS     R0,#+1
        LDR.W    R1,??DataTable244_19
        STR      R0,[R1, #+0]
//  541 	}
//  542 
//  543 	tmp_index = (char *)strstr(cfg_buf, ">CFG_CLOUD_PORT");
??mksEepromRefresh_11:
        LDR.W    R1,??DataTable244_20
        ADD      R0,R4,#+32
          CFI FunCall _Z6strstrPcPKc
        BL       _Z6strstrPcPKc
        MOVS     R7,R0
//  544 	if(tmp_index)
        BEQ.N    ??mksEepromRefresh_12
//  545 	{
//  546 		if( (strcmp((const char *)(&tmp_index[strlen(">CFG_CLOUD_PORT")]), "0") > 0) &&(strcmp((const char *)(&tmp_index[strlen(">CFG_CLOUD_PORT")]), "99999") < 0))
        ADR.N    R1,??mksEepromRefresh_4  ;; "0"
        ADD      R0,R7,#+15
          CFI FunCall strcmp
        BL       strcmp
        CMP      R0,#+1
        BLT.N    ??mksEepromRefresh_13
        LDR.W    R1,??DataTable244_21
        ADD      R0,R7,#+15
          CFI FunCall strcmp
        BL       strcmp
        CMP      R0,#+0
        BPL.N    ??mksEepromRefresh_13
//  547 		{
//  548 			gCfgItems.cloud_port = atoi((char *)(&tmp_index[strlen(">CFG_CLOUD_PORT")]));
        ADD      R0,R7,#+15
          CFI FunCall atoi
        BL       atoi
        STR      R0,[R6, #+656]
        B.N      ??mksEepromRefresh_14
        DATA
??mksEepromRefresh_4:
        DC8      "0",0x0,0x0
        DC32     `?<Constant ">DEFAULT_ZJERK">`
        DC32     `?<Constant ">DEFAULT_EJERK">`
        DC32     _ZN11Temperature2KpE
        DC32     `?<Constant ">DEFAULT_Kp">`
        DC32     `?<Constant ">DEFAULT_Ki">`
        DC32     _ZN11Temperature2KiE
        DC32     `?<Constant ">DEFAULT_Kd">`
        DC32     _ZN11Temperature2KdE
        DC32     `?<Constant ">CFG_WIFI_MODE">`
        DC32     gCfgItems
        DC32     cfg_wifi_flag
        DC32     `?<Constant ">CFG_WIFI_AP_NAME">`
        DC32     `?<Constant ">CFG_WIFI_KEY_CODE">`
        DC32     `?<Constant ">CFG_CLOUD_ENABLE">`
        DC32     `?<Constant ">CFG_WIFI_CLOUD_HOST">`
        THUMB
//  549 		}
//  550 		else					
//  551 			gCfgItems.cloud_port = 10086;
??mksEepromRefresh_13:
        MOVW     R0,#+10086
        STR      R0,[R6, #+656]
//  552 		cfg_cloud_flag = 1;
??mksEepromRefresh_14:
        MOVS     R0,#+1
        LDR.W    R1,??DataTable244_19
        STR      R0,[R1, #+0]
//  553 	}
//  554 	
//  555 #endif        
//  556 
//  557  //DEFAULT_bedKp
//  558 	eprBurnValue(">DEFAULT_bedKp",&thermalManager.bedKp);
??mksEepromRefresh_12:
        LDR.W    R1,??DataTable244_22
        LDR.W    R0,??DataTable244_23
          CFI FunCall _Z12eprBurnValuePcPf
        BL       _Z12eprBurnValuePcPf
//  559 //DEFAULT_bedKi
//  560 	tmp_index = (char *)strstr(cfg_buf, ">DEFAULT_bedKi");
        LDR.W    R1,??DataTable244_24
        ADD      R0,R4,#+32
          CFI FunCall _Z6strstrPcPKc
        BL       _Z6strstrPcPKc
//  561 	if(tmp_index)
        CMP      R0,#+0
        BEQ.N    ??mksEepromRefresh_15
//  562 		{
//  563 		tmp_index += strlen(">DEFAULT_bedKi");
//  564 		mksGetParameter(tmp_index);	
        ADDS     R0,R0,#+14
          CFI FunCall _Z15mksGetParameterPc
        BL       _Z15mksGetParameterPc
//  565 		thermalManager.bedKi = scalePID_i(atof(cmd_code));
        MOV      R0,R5
          CFI FunCall atof
        BL       atof
        LDR.W    R2,??DataTable244_17  ;; 0x88e368f1
        LDR.W    R3,??DataTable244_18  ;; 0x3fc4f8b5
          CFI FunCall __aeabi_dmul
        BL       __aeabi_dmul
          CFI FunCall __aeabi_d2f
        BL       __aeabi_d2f
        LDR.W    R1,??DataTable244_25
        STR      R0,[R1, #+0]
//  566 		}
//  567 //DEFAULT_bedKd
//  568 	tmp_index = (char *)strstr(cfg_buf, ">DEFAULT_bedKd");
??mksEepromRefresh_15:
        LDR.W    R1,??DataTable244_26
        ADD      R0,R4,#+32
          CFI FunCall _Z6strstrPcPKc
        BL       _Z6strstrPcPKc
//  569 	if(tmp_index)
        CMP      R0,#+0
        BEQ.N    ??mksEepromRefresh_16
//  570 		{
//  571 		tmp_index += strlen(">DEFAULT_bedKd");
//  572 		mksGetParameter(tmp_index);	
        ADDS     R0,R0,#+14
          CFI FunCall _Z15mksGetParameterPc
        BL       _Z15mksGetParameterPc
//  573 		thermalManager.bedKd = scalePID_d(atof(cmd_code));
        MOV      R0,R5
          CFI FunCall atof
        BL       atof
        LDR.W    R2,??DataTable244_17  ;; 0x88e368f1
        LDR.W    R3,??DataTable244_18  ;; 0x3fc4f8b5
          CFI FunCall __aeabi_ddiv
        BL       __aeabi_ddiv
          CFI FunCall __aeabi_d2f
        BL       __aeabi_d2f
        LDR.W    R1,??DataTable244_27
        STR      R0,[R1, #+0]
//  574 		}
//  575 
//  576          
//  577  //Z_PROBE_OFFSET_FROM_EXTRUDER
//  578 	eprBurnValue(">Z_PROBE_OFFSET_FROM_EXTRUDER",&zprobe_zoffset);
??mksEepromRefresh_16:
        LDR.W    R1,??DataTable244_28
        LDR.W    R0,??DataTable244_29
          CFI FunCall _Z12eprBurnValuePcPf
        BL       _Z12eprBurnValuePcPf
//  579 //DELTA_RADIUS
//  580 	eprBurnValue(">DELTA_RADIUS",&delta_radius);
        LDR.W    R1,??DataTable244_30
        LDR.W    R0,??DataTable244_31
          CFI FunCall _Z12eprBurnValuePcPf
        BL       _Z12eprBurnValuePcPf
//  581 //DELTA_DIAGONAL_ROD
//  582 	eprBurnValue(">DELTA_DIAGONAL_ROD",&delta_diagonal_rod);
        LDR.W    R1,??DataTable244_32
        LDR.W    R0,??DataTable244_33
          CFI FunCall _Z12eprBurnValuePcPf
        BL       _Z12eprBurnValuePcPf
//  583 //DELTA_SEGMENTS_PER_SECOND
//  584 	eprBurnValue(">DELTA_SEGMENTS_PER_SECOND",&delta_segments_per_second);
        LDR.W    R1,??DataTable244_34
        LDR.W    R0,??DataTable244_35
          CFI FunCall _Z12eprBurnValuePcPf
        BL       _Z12eprBurnValuePcPf
//  585 //DELTA_CALIBRATION_RADIUS
//  586 	eprBurnValue(">DELTA_CALIBRATION_RADIUS",&delta_calibration_radius);
        LDR.W    R1,??DataTable244_36
        LDR.W    R0,??DataTable244_37
          CFI FunCall _Z12eprBurnValuePcPf
        BL       _Z12eprBurnValuePcPf
//  587  
//  588 
//  589 /*------------------------Marlin 自带参数配置 end---------------------------------*/
//  590 
//  591 /*------------------------MKS 新增参数配置 begin---------------------------------*/
//  592         
//  593 //INVERT_x_DIR
//  594 	eprBurnValue(">INVERT_X_DIR", &mksCfg.invert_x_dir, EPR_INVERT_X_DIR);
        MOVW     R2,#+1454
        ADD      R1,R6,#+680
        LDR.W    R0,??DataTable244_38
          CFI FunCall _Z12eprBurnValuePcPht
        BL       _Z12eprBurnValuePcPht
//  595 	eprBurnValue(">INVERT_Y_DIR", &mksCfg.invert_y_dir, EPR_INVERT_Y_DIR);
        MOVW     R2,#+1455
        ADDW     R1,R6,#+681
        LDR.W    R0,??DataTable244_39
          CFI FunCall _Z12eprBurnValuePcPht
        BL       _Z12eprBurnValuePcPht
//  596 	eprBurnValue(">INVERT_Z_DIR", &mksCfg.invert_z_dir, EPR_INVERT_Z_DIR);
        MOV      R2,#+1456
        ADDW     R1,R6,#+682
        LDR.W    R0,??DataTable244_40
          CFI FunCall _Z12eprBurnValuePcPht
        BL       _Z12eprBurnValuePcPht
//  597 	eprBurnValue(">INVERT_E0_DIR", &mksCfg.invert_e0_dir, EPR_INVERT_E0_DIR);
        MOVW     R2,#+1457
        ADDW     R1,R6,#+683
        LDR.W    R0,??DataTable244_41
          CFI FunCall _Z12eprBurnValuePcPht
        BL       _Z12eprBurnValuePcPht
//  598 	eprBurnValue(">INVERT_E1_DIR", &mksCfg.invert_e1_dir, EPR_INVERT_E1_DIR);
        MOVW     R2,#+1458
        ADD      R1,R6,#+684
        LDR.W    R0,??DataTable244_42
          CFI FunCall _Z12eprBurnValuePcPht
        BL       _Z12eprBurnValuePcPht
//  599 //x_HOME_DIR
//  600 	eprBurnValue(">X_HOME_DIR", (uint8_t *)&mksCfg.x_home_dir, EPR_X_HOME_DIR);
        MOVW     R2,#+1459
        ADDW     R1,R6,#+685
        LDR.W    R0,??DataTable244_43
          CFI FunCall _Z12eprBurnValuePcPht
        BL       _Z12eprBurnValuePcPht
//  601 	eprBurnValue(">Y_HOME_DIR", (uint8_t *)&mksCfg.y_home_dir, EPR_Y_HOME_DIR);
        MOVW     R2,#+1460
        ADDW     R1,R6,#+686
        LDR.W    R0,??DataTable244_44
          CFI FunCall _Z12eprBurnValuePcPht
        BL       _Z12eprBurnValuePcPht
//  602 	eprBurnValue(">Z_HOME_DIR", (uint8_t *)&mksCfg.z_home_dir, EPR_Z_HOME_DIR);
        MOVW     R2,#+1461
        ADDW     R1,R6,#+687
        LDR.W    R0,??DataTable244_45
          CFI FunCall _Z12eprBurnValuePcPht
        BL       _Z12eprBurnValuePcPht
//  603 
//  604 //x_MIN_POS 
//  605 	eprBurnValue(">X_MIN_POS", &mksCfg.x_min_pos, EPR_X_MIN_POS);
        MOVW     R2,#+1462
        ADD      R1,R6,#+688
        LDR.W    R0,??DataTable244_46
          CFI FunCall _Z12eprBurnValuePcPft
        BL       _Z12eprBurnValuePcPft
//  606 	eprBurnValue(">Y_MIN_POS", &mksCfg.y_min_pos, EPR_Y_MIN_POS);
        MOVW     R2,#+1466
        ADD      R1,R6,#+692
        LDR.W    R0,??DataTable244_47
          CFI FunCall _Z12eprBurnValuePcPft
        BL       _Z12eprBurnValuePcPft
//  607 	eprBurnValue(">Z_MIN_POS", &mksCfg.z_min_pos, EPR_Z_MIN_POS);
        MOVW     R2,#+1470
        ADD      R1,R6,#+696
        LDR.W    R0,??DataTable244_48
          CFI FunCall _Z12eprBurnValuePcPft
        BL       _Z12eprBurnValuePcPft
//  608 
//  609 //x_MAX_POS 
//  610 	eprBurnValue(">X_MAX_POS", &mksCfg.x_max_pos, EPR_X_MAX_POS);
        MOVW     R2,#+1474
        ADD      R1,R6,#+700
        LDR.W    R0,??DataTable244_49
          CFI FunCall _Z12eprBurnValuePcPft
        BL       _Z12eprBurnValuePcPft
//  611 	eprBurnValue(">Y_MAX_POS", &mksCfg.y_max_pos, EPR_Y_MAX_POS);
        MOVW     R2,#+1478
        ADD      R1,R6,#+704
        ADR.W    R0,`?<Constant ">Y_MAX_POS">`
          CFI FunCall _Z12eprBurnValuePcPft
        BL       _Z12eprBurnValuePcPft
//  612 	eprBurnValue(">Z_MAX_POS", &mksCfg.z_max_pos, EPR_Z_MAX_POS);
        MOVW     R2,#+1482
        ADD      R1,R6,#+708
        ADR.W    R0,`?<Constant ">Z_MAX_POS">`
          CFI FunCall _Z12eprBurnValuePcPft
        BL       _Z12eprBurnValuePcPft
//  613 
//  614 //SOFTWARE_ENDSTOPS
//  615 	eprBurnValue(">MIN_SOFTWARE_ENDSTOPS", &mksCfg.min_software_endstops, EPR_MIN_SOFTWARE_ENDSTOPS);
        MOVW     R2,#+1486
        ADD      R1,R6,#+712
        ADR.W    R0,`?<Constant ">MIN_SOFTWARE_ENDSTOPS">`
          CFI FunCall _Z12eprBurnValuePcPht
        BL       _Z12eprBurnValuePcPht
//  616 	eprBurnValue(">MAX_SOFTWARE_ENDSTOPS", &mksCfg.max_software_endstops, EPR_MAX_SOFTWARE_ENDSTOPS);
        MOVW     R2,#+1487
        ADDW     R1,R6,#+713
        ADR.W    R0,`?<Constant ">MAX_SOFTWARE_ENDSTOPS">`
          CFI FunCall _Z12eprBurnValuePcPht
        BL       _Z12eprBurnValuePcPht
//  617 
//  618 //HOMING_FEEDRATE  
//  619 	eprBurnValue(">HOMING_FEEDRATE_XY", &mksCfg.homing_feedrate_xy, EPR_HOMING_FEEDRATE_XY);
        MOV      R2,#+1488
        ADD      R1,R6,#+716
        LDR.W    R0,??DataTable244_50
          CFI FunCall _Z12eprBurnValuePcPft
        BL       _Z12eprBurnValuePcPft
//  620 	eprBurnValue(">HOMING_FEEDRATE_Z", &mksCfg.homing_feedrate_z, EPR_HOMING_FEEDRATE_Z);
        MOVW     R2,#+1492
        ADD      R1,R6,#+720
        ADR.W    R0,`?<Constant ">HOMING_FEEDRATE_Z">`
          CFI FunCall _Z12eprBurnValuePcPft
        BL       _Z12eprBurnValuePcPft
//  621 	eprBurnValue(">EXTRUDE_MINTEMP", &mksCfg.extrude_mintemp, EPR_EXTRUDE_MINTEMP);
        MOV      R2,#+1496
        ADD      R1,R6,#+724
        ADR.W    R0,`?<Constant ">EXTRUDE_MINTEMP">`
          CFI FunCall _Z12eprBurnValuePcPft
        BL       _Z12eprBurnValuePcPft
//  622 
//  623 //robinPlus add
//  624 	eprBurnValue(">HEATER_0_MINTEMP", &mksCfg.heater_0_mintemp, EPR_HEATER_0_MINTEMP);
        MOVW     R2,#+1674
        ADD      R1,R6,#+920
        ADR.W    R0,`?<Constant ">HEATER_0_MINTEMP">`
          CFI FunCall _Z12eprBurnValuePcPst
        BL       _Z12eprBurnValuePcPst
//  625 	eprBurnValue(">HEATER_1_MINTEMP", (uint8_t *)&mksCfg.heater_1_mintemp, EPR_HEATER_1_MINTEMP);
        MOVW     R2,#+1676
        ADDW     R1,R6,#+922
        ADR.W    R0,`?<Constant ">HEATER_1_MINTEMP">`
          CFI FunCall _Z12eprBurnValuePcPht
        BL       _Z12eprBurnValuePcPht
//  626 	eprBurnValue(">HEATER_1_MAXTEMP", &mksCfg.heater_1_maxtemp, EPR_HEATER_1_MAXTEMP);
        MOVW     R2,#+1677
        ADD      R1,R6,#+924
        LDR.W    R0,??DataTable244_51
          CFI FunCall _Z12eprBurnValuePcPst
        BL       _Z12eprBurnValuePcPst
//  627 	eprBurnValue(">TEMP_SENSOR_0", (uint8_t *)&mksCfg.temp_sensor_0, EPR_TEMP_SENSOR_0);
        MOVW     R2,#+1679
        ADDW     R1,R6,#+926
        ADR.W    R0,`?<Constant ">TEMP_SENSOR_0">`
          CFI FunCall _Z12eprBurnValuePcPht
        BL       _Z12eprBurnValuePcPht
//  628 	eprBurnValue(">EXTRUDERS", &mksCfg.extruders, EPR_EXTRUDERS);
        MOV      R2,#+1680
        ADDW     R1,R6,#+927
        ADR.W    R0,`?<Constant ">EXTRUDERS">`
          CFI FunCall _Z12eprBurnValuePcPht
        BL       _Z12eprBurnValuePcPht
//  629 
//  630 //HEATER_0_MAXTEMP  
//  631 	eprBurnValue(">HEATER_0_MAXTEMP", &mksCfg.heater_0_maxtemp, EPR_HEATER_0_MAXTEMP);
        MOVW     R2,#+1500
        ADD      R1,R6,#+728
        ADR.W    R0,`?<Constant ">HEATER_0_MAXTEMP">`
          CFI FunCall _Z12eprBurnValuePcPst
        BL       _Z12eprBurnValuePcPst
//  632 //BED_MAXTEMP  
//  633 	eprBurnValue(">BED_MAXTEMP", &mksCfg.bed_maxtemp, EPR_BED_MAXTEMP);
        MOVW     R2,#+1502
        ADDW     R1,R6,#+730
        ADR.W    R0,`?<Constant ">BED_MAXTEMP">`
          CFI FunCall _Z12eprBurnValuePcPst
        BL       _Z12eprBurnValuePcPst
//  634 //PIDTEMP 
//  635 	eprBurnValue(">PIDTEMPE", &mksCfg.pidtemp, EPR_PIDTEMP);
        MOV      R2,#+1504
        ADD      R1,R6,#+732
        ADR.W    R0,`?<Constant ">PIDTEMPE">`
          CFI FunCall _Z12eprBurnValuePcPht
        BL       _Z12eprBurnValuePcPht
//  636 //PIDTEMPBED  
//  637 	eprBurnValue(">PIDTEMPBED", &mksCfg.pidtempbed, EPR_PIDTEMPBED);
        MOVW     R2,#+1505
        ADDW     R1,R6,#+733
        ADR.W    R0,`?<Constant ">PIDTEMPBED">`
          CFI FunCall _Z12eprBurnValuePcPht
        BL       _Z12eprBurnValuePcPht
//  638 //HAS_TEMP_BED  
//  639 	eprBurnValue(">HAS_TEMP_BED", &mksCfg.has_temp_bed, EPR_HAS_TEMP_BED);
        MOVW     R2,#+1506
        ADDW     R1,R6,#+734
        ADR.W    R0,`?<Constant ">HAS_TEMP_BED">`
          CFI FunCall _Z12eprBurnValuePcPht
        BL       _Z12eprBurnValuePcPht
//  640 //MIN_ENDSTOP_INVERTING  
//  641 	eprBurnValue(">X_MIN_ENDSTOP_INVERTING", &mksCfg.x_min_endstop_inverting, EPR_X_MIN_ENDSTOP_INVERTING);
        MOVW     R2,#+1507
        ADDW     R1,R6,#+735
        ADR.W    R0,`?<Constant ">X_MIN_ENDSTOP_INVERTING">`
          CFI FunCall _Z12eprBurnValuePcPht
        BL       _Z12eprBurnValuePcPht
//  642 	eprBurnValue(">Y_MIN_ENDSTOP_INVERTING", &mksCfg.y_min_endstop_inverting, EPR_Y_MIN_ENDSTOP_INVERTING);
        MOVW     R2,#+1508
        ADD      R1,R6,#+736
        ADR.W    R0,`?<Constant ">Y_MIN_ENDSTOP_INVERTING">`
          CFI FunCall _Z12eprBurnValuePcPht
        BL       _Z12eprBurnValuePcPht
//  643 	eprBurnValue(">Z_MIN_ENDSTOP_INVERTING", &mksCfg.z_min_endstop_inverting, EPR_Z_MIN_ENDSTOP_INVERTING);
        MOVW     R2,#+1509
        ADDW     R1,R6,#+737
        LDR.W    R0,??DataTable244_52
          CFI FunCall _Z12eprBurnValuePcPht
        BL       _Z12eprBurnValuePcPht
//  644 //MAX_ENDSTOP_INVERTING  
//  645 	eprBurnValue(">X_MAX_ENDSTOP_INVERTING", &mksCfg.x_max_endstop_inverting, EPR_X_MAX_ENDSTOP_INVERTING);
        MOVW     R2,#+1510
        ADDW     R1,R6,#+738
        ADR.W    R0,`?<Constant ">X_MAX_ENDSTOP_INVERTING">`
          CFI FunCall _Z12eprBurnValuePcPht
        BL       _Z12eprBurnValuePcPht
//  646 	eprBurnValue(">Y_MAX_ENDSTOP_INVERTING", &mksCfg.y_max_endstop_inverting, EPR_Y_MAX_ENDSTOP_INVERTING);
        MOVW     R2,#+1511
        ADDW     R1,R6,#+739
        ADR.W    R0,`?<Constant ">Y_MAX_ENDSTOP_INVERTING">`
          CFI FunCall _Z12eprBurnValuePcPht
        BL       _Z12eprBurnValuePcPht
//  647 	eprBurnValue(">Z_MAX_ENDSTOP_INVERTING", &mksCfg.z_max_endstop_inverting, EPR_Z_MAX_ENDSTOP_INVERTING);
        MOV      R2,#+1512
        ADD      R1,R6,#+740
        LDR.W    R0,??DataTable244_53
          CFI FunCall _Z12eprBurnValuePcPht
        BL       _Z12eprBurnValuePcPht
//  648 //Z_MIN_PROBE_ENDSTOP_INVERTING  
//  649 	eprBurnValue(">Z_MIN_PROBE_ENDSTOP_INVERTING", &mksCfg.z_min_probe_endstop_inverting, EPR_Z_MIN_PROBE_ENDSTOP_INVERTING);
        MOVW     R2,#+1513
        ADDW     R1,R6,#+741
        ADR.W    R0,`?<Constant ">Z_MIN_PROBE_ENDSTOP_...">`
          CFI FunCall _Z12eprBurnValuePcPht
        BL       _Z12eprBurnValuePcPht
//  650 //LCD_LANGUAGE  
//  651 	eprBurnValue(">LCD_LANGUAGE", &mksCfg.lcd_language, EPR_LCD_LANGUAGE);
        MOVW     R2,#+1514
        ADDW     R1,R6,#+742
        LDR.W    R0,??DataTable244_54
          CFI FunCall _Z12eprBurnValuePcPht
        BL       _Z12eprBurnValuePcPht
//  652 //HOME_Y_BEFORE_X
//  653 	eprBurnValue(">HOME_Y_BEFORE_X", &mksCfg.home_y_before_x, EPR_HOME_Y_BEFORE_X);
        MOVW     R2,#+1515
        ADDW     R1,R6,#+743
        ADR.W    R0,`?<Constant ">HOME_Y_BEFORE_X">`
          CFI FunCall _Z12eprBurnValuePcPht
        BL       _Z12eprBurnValuePcPht
//  654 //BED_LEVELING_METHOD
//  655 	eprBurnValue(">BED_LEVELING_METHOD", &mksCfg.bed_leveling_method, EPR_BED_LEVELING_METHOD);
        MOVW     R2,#+1516
        ADD      R1,R6,#+744
        ADR.W    R0,`?<Constant ">BED_LEVELING_METHOD">`
          CFI FunCall _Z12eprBurnValuePcPht
        BL       _Z12eprBurnValuePcPht
//  656 
//  657 //DELTA_SMOOTH_ROD_OFFSET
//  658 	eprBurnValue(">DELTA_SMOOTH_ROD_OFFSET", &mksCfg.delta_smooth_rod_offset, EPR_DELTA_SMOOTH_ROD_OFFSET);
        MOVW     R2,#+1517
        ADD      R1,R6,#+748
        LDR.W    R0,??DataTable244_55
          CFI FunCall _Z12eprBurnValuePcPft
        BL       _Z12eprBurnValuePcPft
//  659 //DELTA_EFFECTOR_OFFSET
//  660 	eprBurnValue(">DELTA_EFFECTOR_OFFSET", &mksCfg.delta_effector_offset, EPR_DELTA_EFFECTOR_OFFSET);
        MOVW     R2,#+1521
        ADD      R1,R6,#+752
        ADR.W    R0,`?<Constant ">DELTA_EFFECTOR_OFFSET">`
          CFI FunCall _Z12eprBurnValuePcPft
        BL       _Z12eprBurnValuePcPft
//  661 //DELTA_CARRIAGE_OFFSET
//  662 	eprBurnValue(">DELTA_CARRIAGE_OFFSET", &mksCfg.delta_carriage_offset, EPR_DELTA_CARRIAGE_OFFSET);
        MOVW     R2,#+1525
        ADD      R1,R6,#+756
        ADR.W    R0,`?<Constant ">DELTA_CARRIAGE_OFFSET">`
          CFI FunCall _Z12eprBurnValuePcPft
        BL       _Z12eprBurnValuePcPft
//  663 //DELTA_HEIGHT
//  664 	eprBurnValue(">DELTA_HEIGHT", &mksCfg.delta_height, EPR_DELTA_HEIGHT);
        MOVW     R2,#+1529
        ADD      R1,R6,#+760
        LDR.W    R0,??DataTable244_56
          CFI FunCall _Z12eprBurnValuePcPft
        BL       _Z12eprBurnValuePcPft
//  665     delta_height = mksCfg.delta_height;
        LDR      R0,[R6, #+760]
        LDR.W    R1,??DataTable244_57
        STR      R0,[R1, #+0]
//  666 
//  667 //DELTA_PRINTABLE_RADIUS
//  668 	eprBurnValue(">DELTA_PRINTABLE_RADIUS", &mksCfg.delta_printable_radius, EPR_DELTA_PRINTABLE_RADIUS);
        MOVW     R2,#+1533
        ADD      R1,R6,#+764
        ADR.W    R0,`?<Constant ">DELTA_PRINTABLE_RADIUS">`
          CFI FunCall _Z12eprBurnValuePcPft
        BL       _Z12eprBurnValuePcPft
//  669 //MACHINETPYE
//  670 	eprBurnValue(">MACHINETPYE", &mksCfg.machinetype, EPR_MACHINETPYE);
        MOVW     R2,#+1537
        ADD      R1,R6,#+768
        ADR.W    R0,`?<Constant ">MACHINETPYE">`
          CFI FunCall _Z12eprBurnValuePcPst
        BL       _Z12eprBurnValuePcPst
//  671 
//  672 //CURRENT_VREF
//  673         eprBurnValue(">CURRENT_VREF_XY", &mksCfg.current_vref_xy, EPR_CURRENT_VREF_XY);
        MOVW     R2,#+1539
        ADDW     R1,R6,#+770
        ADR.W    R0,`?<Constant ">CURRENT_VREF_XY">`
          CFI FunCall _Z12eprBurnValuePcPst
        BL       _Z12eprBurnValuePcPst
//  674         eprBurnValue(">CURRENT_VREF_Z", &mksCfg.current_vref_z, EPR_CURRENT_VREF_Z);
        MOVW     R2,#+1541
        ADD      R1,R6,#+772
        ADR.W    R0,`?<Constant ">CURRENT_VREF_Z">`
          CFI FunCall _Z12eprBurnValuePcPst
        BL       _Z12eprBurnValuePcPst
//  675         eprBurnValue(">CURRENT_VREF_E", &mksCfg.current_vref_e, EPR_CURRENT_VREF_E);
        MOVW     R2,#+1543
        ADDW     R1,R6,#+774
        ADR.W    R0,`?<Constant ">CURRENT_VREF_E">`
          CFI FunCall _Z12eprBurnValuePcPst
        BL       _Z12eprBurnValuePcPst
//  676 //GRID_MAX_POINTS
//  677 	eprBurnValue(">GRID_MAX_POINTS_X", &mksCfg.grid_max_points_x, EPR_GRID_MAX_POINTS_X);
        MOVW     R2,#+1545
        ADD      R1,R6,#+776
        ADR.W    R0,`?<Constant ">GRID_MAX_POINTS_X">`
          CFI FunCall _Z12eprBurnValuePcPht
        BL       _Z12eprBurnValuePcPht
//  678 	eprBurnValue(">GRID_MAX_POINTS_Y", &mksCfg.grid_max_points_y, EPR_GRID_MAX_POINTS_Y);
        MOVW     R2,#+1546
        ADDW     R1,R6,#+777
        ADR.W    R0,`?<Constant ">GRID_MAX_POINTS_Y">`
          CFI FunCall _Z12eprBurnValuePcPht
        BL       _Z12eprBurnValuePcPht
//  679 
//  680 //Z_CLEARANCE_DEPLOY_PROBE
//  681 	eprBurnValue(">Z_CLEARANCE_DEPLOY_PROBE", &mksCfg.z_clearance_deploy_probe, EPR_Z_CLEARANCE_DEPLOY_PROBE);
        MOVW     R2,#+1547
        ADD      R1,R6,#+780
        ADR.W    R0,`?<Constant ">Z_CLEARANCE_DEPLOY_P...">`
          CFI FunCall _Z12eprBurnValuePcPft
        BL       _Z12eprBurnValuePcPft
//  682 //Z_CLEARANCE_BETWEEN_PROBES
//  683 	eprBurnValue(">Z_CLEARANCE_BETWEEN_PROBES", &mksCfg.z_clearance_between_probes, EPR_Z_CLEARANCE_BETWEEN_PROBES);
        MOVW     R2,#+1551
        ADD      R1,R6,#+784
        LDR.W    R0,??DataTable244_58
          CFI FunCall _Z12eprBurnValuePcPft
        BL       _Z12eprBurnValuePcPft
//  684 //X_PROBE_OFFSET_FROM_EXTRUDER
//  685 	eprBurnValue(">X_PROBE_OFFSET_FROM_EXTRUDER", &mksCfg.x_probe_offset_from_extruder, EPR_X_PROBE_OFFSET_FROM_EXTRUDER);
        MOVW     R2,#+1555
        ADD      R1,R6,#+788
        ADR.W    R0,`?<Constant ">X_PROBE_OFFSET_FROM_...">`
          CFI FunCall _Z12eprBurnValuePcPft
        BL       _Z12eprBurnValuePcPft
//  686 //Y_PROBE_OFFSET_FROM_EXTRUDER
//  687 	eprBurnValue(">Y_PROBE_OFFSET_FROM_EXTRUDER", &mksCfg.y_probe_offset_from_extruder, EPR_Y_PROBE_OFFSET_FROM_EXTRUDER);
        MOVW     R2,#+1559
        ADD      R1,R6,#+792
        LDR.W    R0,??DataTable244_59
          CFI FunCall _Z12eprBurnValuePcPft
        BL       _Z12eprBurnValuePcPft
//  688 //XY_PROBE_SPEED
//  689 	eprBurnValue(">XY_PROBE_SPEED", &mksCfg.xy_probe_speed, EPR_XY_PROBE_SPEED);
        MOVW     R2,#+1563
        ADD      R1,R6,#+796
        ADR.W    R0,`?<Constant ">XY_PROBE_SPEED">`
          CFI FunCall _Z12eprBurnValuePcPft
        BL       _Z12eprBurnValuePcPft
//  690 //Z_PROBE_SPEED_FAST
//  691 	eprBurnValue(">Z_PROBE_SPEED_FAST", &mksCfg.z_probe_speed_fast, EPR_Z_PROBE_SPEED_FAST);
        MOVW     R2,#+1567
        ADD      R1,R6,#+800
        ADR.W    R0,`?<Constant ">Z_PROBE_SPEED_FAST">`
          CFI FunCall _Z12eprBurnValuePcPft
        BL       _Z12eprBurnValuePcPft
//  692 //Z_PROBE_SPEED_SLOW
//  693 	eprBurnValue(">Z_PROBE_SPEED_SLOW", &mksCfg.z_probe_speed_slow, EPR_Z_PROBE_SPEED_SLOW);
        MOVW     R2,#+1571
        ADD      R1,R6,#+804
        ADR.W    R0,`?<Constant ">Z_PROBE_SPEED_SLOW">`
          CFI FunCall _Z12eprBurnValuePcPft
        BL       _Z12eprBurnValuePcPft
//  694 
//  695 //USE_MIN/MAX_PLUG
//  696 	eprBurnValue(">USE_XMIN_PLUG", &mksCfg.use_xmin_plug, EPR_USE_XMIN_PLUG);
        MOVW     R2,#+1575
        ADD      R1,R6,#+808
        LDR.W    R0,??DataTable244_60
          CFI FunCall _Z12eprBurnValuePcPht
        BL       _Z12eprBurnValuePcPht
//  697 	eprBurnValue(">USE_YMIN_PLUG", &mksCfg.use_ymin_plug, EPR_USE_YMIN_PLUG);
        MOV      R2,#+1576
        ADDW     R1,R6,#+809
        ADR.W    R0,`?<Constant ">USE_YMIN_PLUG">`
          CFI FunCall _Z12eprBurnValuePcPht
        BL       _Z12eprBurnValuePcPht
//  698 	eprBurnValue(">USE_ZMIN_PLUG", &mksCfg.use_zmin_plug, EPR_USE_ZMIN_PLUG);
        MOVW     R2,#+1577
        ADDW     R1,R6,#+810
        ADR.W    R0,`?<Constant ">USE_ZMIN_PLUG">`
          CFI FunCall _Z12eprBurnValuePcPht
        BL       _Z12eprBurnValuePcPht
//  699 	eprBurnValue(">USE_XMAX_PLUG", &mksCfg.use_xmax_plug, EPR_USE_XMAX_PLUG);
        MOVW     R2,#+1578
        ADDW     R1,R6,#+811
        ADR.W    R0,`?<Constant ">USE_XMAX_PLUG">`
          CFI FunCall _Z12eprBurnValuePcPht
        BL       _Z12eprBurnValuePcPht
//  700 	eprBurnValue(">USE_YMAX_PLUG", &mksCfg.use_ymax_plug, EPR_USE_YMAX_PLUG);
        MOVW     R2,#+1579
        ADD      R1,R6,#+812
        ADR.W    R0,`?<Constant ">USE_YMAX_PLUG">`
          CFI FunCall _Z12eprBurnValuePcPht
        BL       _Z12eprBurnValuePcPht
//  701 	eprBurnValue(">USE_ZMAX_PLUG", &mksCfg.use_zmax_plug, EPR_USE_ZMAX_PLUG);
        MOVW     R2,#+1580
        ADDW     R1,R6,#+813
        ADR.W    R0,`?<Constant ">USE_ZMAX_PLUG">`
          CFI FunCall _Z12eprBurnValuePcPht
        BL       _Z12eprBurnValuePcPht
//  702 
//  703 //PROBE_BED_POSITION
//  704 	eprBurnValue(">LEFT_PROBE_BED_POSITION", &mksCfg.left_probe_bed_position, EPR_LEFT_PROBE_BED_POSITION);
        MOVW     R2,#+1581
        ADD      R1,R6,#+816
        ADR.W    R0,`?<Constant ">LEFT_PROBE_BED_POSITION">`
          CFI FunCall _Z12eprBurnValuePcPft
        BL       _Z12eprBurnValuePcPft
//  705 	eprBurnValue(">RIGHT_PROBE_BED_POSITION", &mksCfg.right_probe_bed_position, EPR_RIGHT_PROBE_BED_POSITION);
        MOVW     R2,#+1585
        ADD      R1,R6,#+820
        ADR.W    R0,`?<Constant ">RIGHT_PROBE_BED_POSI...">`
          CFI FunCall _Z12eprBurnValuePcPft
        BL       _Z12eprBurnValuePcPft
//  706 	eprBurnValue(">FRONT_PROBE_BED_POSITION", &mksCfg.front_probe_bed_position, EPR_FRONT_PROBE_BED_POSITION);
        MOVW     R2,#+1589
        ADD      R1,R6,#+824
        LDR.W    R0,??DataTable244_61
          CFI FunCall _Z12eprBurnValuePcPft
        BL       _Z12eprBurnValuePcPft
//  707 	eprBurnValue(">BACK_PROBE_BED_POSITION", &mksCfg.back_probe_bed_position, EPR_BACK_PROBE_BED_POSITION);
        MOVW     R2,#+1593
        ADD      R1,R6,#+828
        ADR.W    R0,`?<Constant ">BACK_PROBE_BED_POSITION">`
          CFI FunCall _Z12eprBurnValuePcPft
        BL       _Z12eprBurnValuePcPft
//  708 
//  709 //MESH_INSET
//  710 	eprBurnValue(">MESH_INSET", &mksCfg.mesh_inst, EPR_MESH_INSET);
        MOVW     R2,#+1597
        ADD      R1,R6,#+832
        LDR.W    R0,??DataTable244_62
          CFI FunCall _Z12eprBurnValuePcPht
        BL       _Z12eprBurnValuePcPht
//  711 
//  712 //Z_MIN_PROBE_PIN_MODE
//  713 	eprBurnValue(">Z_MIN_PROBE_PIN_MODE", &mksCfg.z_min_probe_pin_mode, EPR_Z_MIN_PROBE_PIN_MODE);
        MOVW     R2,#+1598
        ADDW     R1,R6,#+833
        ADR.W    R0,`?<Constant ">Z_MIN_PROBE_PIN_MODE">`
          CFI FunCall _Z12eprBurnValuePcPht
        BL       _Z12eprBurnValuePcPht
//  714 
//  715 
//  716 //ABL_PROBE_PT
//  717 
//  718 	eprBurnValue(">ABL_PROBE_PT_1_X", &mksCfg.abl_probe_pt1_x, EPR_ABL_PROBE_PT_1_X);
        MOVW     R2,#+1599
        ADD      R1,R6,#+836
        ADR.W    R0,`?<Constant ">ABL_PROBE_PT_1_X">`
          CFI FunCall _Z12eprBurnValuePcPft
        BL       _Z12eprBurnValuePcPft
//  719 	eprBurnValue(">ABL_PROBE_PT_1_Y", &mksCfg.abl_probe_pt1_y, EPR_ABL_PROBE_PT_1_Y);
        MOVW     R2,#+1603
        ADD      R1,R6,#+840
        LDR.W    R0,??DataTable244_63
          CFI FunCall _Z12eprBurnValuePcPft
        BL       _Z12eprBurnValuePcPft
//  720 	eprBurnValue(">ABL_PROBE_PT_2_X", &mksCfg.abl_probe_pt2_x, EPR_ABL_PROBE_PT_2_X);
        MOVW     R2,#+1607
        ADD      R1,R6,#+844
        ADR.W    R0,`?<Constant ">ABL_PROBE_PT_2_X">`
          CFI FunCall _Z12eprBurnValuePcPft
        BL       _Z12eprBurnValuePcPft
//  721 	eprBurnValue(">ABL_PROBE_PT_2_Y", &mksCfg.abl_probe_pt2_y, EPR_ABL_PROBE_PT_2_Y);
        MOVW     R2,#+1611
        ADD      R1,R6,#+848
        ADR.W    R0,`?<Constant ">ABL_PROBE_PT_2_Y">`
          CFI FunCall _Z12eprBurnValuePcPft
        BL       _Z12eprBurnValuePcPft
//  722 	eprBurnValue(">ABL_PROBE_PT_3_X", &mksCfg.abl_probe_pt3_x, EPR_ABL_PROBE_PT_3_X);
        MOVW     R2,#+1615
        ADD      R1,R6,#+852
        ADR.W    R0,`?<Constant ">ABL_PROBE_PT_3_X">`
          CFI FunCall _Z12eprBurnValuePcPft
        BL       _Z12eprBurnValuePcPft
//  723 	eprBurnValue(">ABL_PROBE_PT_3_Y", &mksCfg.abl_probe_pt3_y, EPR_ABL_PROBE_PT_3_Y);
        MOVW     R2,#+1619
        ADD      R1,R6,#+856
        ADR.W    R0,`?<Constant ">ABL_PROBE_PT_3_Y">`
          CFI FunCall _Z12eprBurnValuePcPft
        BL       _Z12eprBurnValuePcPft
//  724 
//  725 
//  726 //UBL_MESH_INSET
//  727 	eprBurnValue(">UBL_MESH_INSET", &mksCfg.ubl_mesh_inset, EPR_UBL_MESH_INSET);
        MOVW     R2,#+1623
        ADD      R1,R6,#+860
        LDR.W    R0,??DataTable244_64
          CFI FunCall _Z12eprBurnValuePcPst
        BL       _Z12eprBurnValuePcPst
//  728 //UBL_PROBE_PT_1_X
//  729 	eprBurnValue(">UBL_PROBE_PT_1_X", &mksCfg.ubl_probe_pt_1_x, EPR_UBL_PROBE_PT_1_X);
        MOVW     R2,#+1625
        ADD      R1,R6,#+864
        ADR.W    R0,`?<Constant ">UBL_PROBE_PT_1_X">`
          CFI FunCall _Z12eprBurnValuePcPft
        BL       _Z12eprBurnValuePcPft
//  730 	eprBurnValue(">UBL_PROBE_PT_1_Y", &mksCfg.ubl_probe_pt_1_y, EPR_UBL_PROBE_PT_1_Y);
        MOVW     R2,#+1629
        ADD      R1,R6,#+868
        ADR.W    R0,`?<Constant ">UBL_PROBE_PT_1_Y">`
          CFI FunCall _Z12eprBurnValuePcPft
        BL       _Z12eprBurnValuePcPft
//  731 	eprBurnValue(">UBL_PROBE_PT_2_X", &mksCfg.ubl_probe_pt_2_x, EPR_UBL_PROBE_PT_2_X);
        MOVW     R2,#+1633
        ADD      R1,R6,#+872
        ADR.W    R0,`?<Constant ">UBL_PROBE_PT_2_X">`
          CFI FunCall _Z12eprBurnValuePcPft
        BL       _Z12eprBurnValuePcPft
//  732 	eprBurnValue(">UBL_PROBE_PT_2_Y", &mksCfg.ubl_probe_pt_2_y, EPR_UBL_PROBE_PT_2_Y);
        MOVW     R2,#+1637
        ADD      R1,R6,#+876
        ADR.W    R0,`?<Constant ">UBL_PROBE_PT_2_Y">`
          CFI FunCall _Z12eprBurnValuePcPft
        BL       _Z12eprBurnValuePcPft
//  733 	eprBurnValue(">UBL_PROBE_PT_3_X", &mksCfg.ubl_probe_pt_3_x, EPR_UBL_PROBE_PT_3_X);
        MOVW     R2,#+1641
        ADD      R1,R6,#+880
        LDR.W    R0,??DataTable244_65
          CFI FunCall _Z12eprBurnValuePcPft
        BL       _Z12eprBurnValuePcPft
//  734 	eprBurnValue(">UBL_PROBE_PT_3_Y", &mksCfg.ubl_probe_pt_3_y, EPR_UBL_PROBE_PT_3_Y);
        MOVW     R2,#+1645
        ADD      R1,R6,#+884
        ADR.W    R0,`?<Constant ">UBL_PROBE_PT_3_Y">`
          CFI FunCall _Z12eprBurnValuePcPft
        BL       _Z12eprBurnValuePcPft
//  735 	
//  736 //FIL_RUNOUT_INVERTING
//  737 	eprBurnValue(">FIL_RUNOUT_INVERTING", &mksCfg.fil_runout_inverting, EPR_FIL_RUNOUT_INVERTING);
        MOVW     R2,#+1649
        ADD      R1,R6,#+888
        ADR.W    R0,`?<Constant ">FIL_RUNOUT_INVERTING">`
          CFI FunCall _Z12eprBurnValuePcPht
        BL       _Z12eprBurnValuePcPht
//  738 
//  739 //FILAMENT_CHANGE_X_POS
//  740 	eprBurnValue(">FILAMENT_CHANGE_X_POS", &mksCfg.filament_change_x_pos, EPR_FILAMENT_CHANGE_X_POS);
        MOVW     R2,#+1650
        ADD      R1,R6,#+892
        ADR.W    R0,`?<Constant ">FILAMENT_CHANGE_X_POS">`
          CFI FunCall _Z12eprBurnValuePcPft
        BL       _Z12eprBurnValuePcPft
//  741 	eprBurnValue(">FILAMENT_CHANGE_Y_POS", &mksCfg.filament_change_y_pos, EPR_FILAMENT_CHANGE_Y_POS);
        MOVW     R2,#+1654
        ADD      R1,R6,#+896
        LDR.W    R0,??DataTable244_66
          CFI FunCall _Z12eprBurnValuePcPft
        BL       _Z12eprBurnValuePcPft
//  742 	eprBurnValue(">FILAMENT_CHANGE_Z_ADD", &mksCfg.filament_change_z_add, EPR_FILAMENT_CHANGE_Z_ADD);
        MOVW     R2,#+1658
        ADD      R1,R6,#+900
        ADR.W    R0,`?<Constant ">FILAMENT_CHANGE_Z_ADD">`
          CFI FunCall _Z12eprBurnValuePcPft
        BL       _Z12eprBurnValuePcPft
//  743 
//  744 	eprBurnValue(">HOME_X_POS", &mksReprint.mks_zero_x, EPR_ZERO_X_POS);
        LDR.W    R7,??DataTable244_67
        MOVW     R2,#+1846
        ADD      R1,R7,#+172
        ADR.W    R0,`?<Constant ">HOME_X_POS">`
          CFI FunCall _Z12eprBurnValuePcPft
        BL       _Z12eprBurnValuePcPft
//  745 	eprBurnValue(">HOME_Y_POS", &mksReprint.mks_zero_y, EPR_ZERO_Y_POS);
        MOVW     R2,#+1850
        ADD      R1,R7,#+176
        ADR.W    R0,`?<Constant ">HOME_Y_POS">`
          CFI FunCall _Z12eprBurnValuePcPft
        BL       _Z12eprBurnValuePcPft
//  746 	
//  747 
//  748 //THERMAL_PROTECTION_PERIOD
//  749 	eprBurnValue(">THERMAL_PROTECTION_PERIOD", &mksCfg.thermal_protection_period, EPR_THERMAL_PROTECTION_PERIOD);
        MOVW     R2,#+1662
        ADD      R1,R6,#+904
        ADR.W    R0,`?<Constant ">THERMAL_PROTECTION_P...">`
          CFI FunCall _Z12eprBurnValuePcPst
        BL       _Z12eprBurnValuePcPst
//  750 	eprBurnValue(">THERMAL_PROTECTION_HYSTERESIS", &mksCfg.thermal_protection_hysteresis, EPR_THERMAL_PROTECTION_HYSTERESIS);
        MOV      R2,#+1664
        ADDW     R1,R6,#+906
        ADR.W    R0,`?<Constant ">THERMAL_PROTECTION_H...">`
          CFI FunCall _Z12eprBurnValuePcPht
        BL       _Z12eprBurnValuePcPht
//  751 	eprBurnValue(">WATCH_TEMP_PERIOD", &mksCfg.watch_temp_period, EPR_WATCH_TEMP_PERIOD);
        MOVW     R2,#+1665
        ADD      R1,R6,#+908
        LDR.W    R0,??DataTable244_68
          CFI FunCall _Z12eprBurnValuePcPst
        BL       _Z12eprBurnValuePcPst
//  752 	eprBurnValue(">WATCH_TEMP_INCREASE", &mksCfg.watch_temp_increase, EPR_WATCH_TEMP_INCREASE);
        MOVW     R2,#+1667
        ADDW     R1,R6,#+910
        ADR.W    R0,`?<Constant ">WATCH_TEMP_INCREASE">`
          CFI FunCall _Z12eprBurnValuePcPht
        BL       _Z12eprBurnValuePcPht
//  753 
//  754 //THERMAL_PROTECTION_BED_PERIOD
//  755 	eprBurnValue(">THERMAL_PROTECTION_BED_PERIOD", &mksCfg.thermal_protection_bed_period, EPR_THERMAL_PROTECTION_BED_PERIOD);
        MOVW     R2,#+1668
        ADD      R1,R6,#+912
        LDR.W    R0,??DataTable244_69
          CFI FunCall _Z12eprBurnValuePcPst
        BL       _Z12eprBurnValuePcPst
//  756 	eprBurnValue(">THERMAL_PROTECTION_BED_HYSTERESIS", &mksCfg.thermal_protection_bed_hysteresis, EPR_THERMAL_PROTECTION_BED_HYSTERESIS);
        MOVW     R2,#+1670
        ADDW     R1,R6,#+914
        ADR.W    R0,`?<Constant ">THERMAL_PROTECTION_B...">_1`
          CFI FunCall _Z12eprBurnValuePcPht
        BL       _Z12eprBurnValuePcPht
//  757 	eprBurnValue(">WATCH_BED_TEMP_PERIOD", &mksCfg.watch_bed_temp_period, EPR_WATCH_BED_TEMP_PERIOD);
        MOVW     R2,#+1671
        ADD      R1,R6,#+916
        LDR.W    R0,??DataTable244_70
          CFI FunCall _Z12eprBurnValuePcPst
        BL       _Z12eprBurnValuePcPst
//  758 	eprBurnValue(">WATCH_BED_TEMP_INCREASE", &mksCfg.watch_bed_temp_increase, EPR_WATCH_BED_TEMP_INCREASE);
        MOVW     R2,#+1673
        ADDW     R1,R6,#+918
        ADR.W    R0,`?<Constant ">WATCH_BED_TEMP_INCREASE">`
          CFI FunCall _Z12eprBurnValuePcPht
        BL       _Z12eprBurnValuePcPht
//  759 /*
//  760 	tmp_index = (char *)strstr(cfg_buf, ">cfg_hardware_test_enable");
//  761 	
//  762 	if(tmp_index)
//  763 	{
//  764 		mksTmp.cfg_hardware_test_enable = 1;
//  765 	}
//  766 	*/
//  767     eprBurnValue(">cfg_hardware_test_enable",(uint32_t*)&mksTmp.cfg_hardware_test_enable);
        ADD      R1,R4,#+19
        LDR.W    R0,??DataTable244_71
          CFI FunCall _Z12eprBurnValuePcPj
        BL       _Z12eprBurnValuePcPj
//  768 
//  769 //HOTEND_OFFSET_X/Y
//  770 	eprBurnValue(">HOTEND_OFFSET_X", &mksCfg.hotnd_offset_x, EPR_HOTEND_OFFSET_X);
        MOVW     R2,#+1681
        ADD      R1,R6,#+928
        ADR.W    R0,`?<Constant ">HOTEND_OFFSET_X">`
          CFI FunCall _Z12eprBurnValuePcPft
        BL       _Z12eprBurnValuePcPft
//  771 	eprBurnValue(">HOTEND_OFFSET_Y", &mksCfg.hotnd_offset_y, EPR_HOTEND_OFFSET_Y);
        MOVW     R2,#+1685
        ADD      R1,R6,#+932
        ADR.W    R0,`?<Constant ">HOTEND_OFFSET_Y">`
          CFI FunCall _Z12eprBurnValuePcPft
        BL       _Z12eprBurnValuePcPft
//  772 
//  773 //BLTOUCH
//  774 	eprBurnValue(">BLTOUCH", &mksCfg.mkstouch, EPR_MKSTOUCH);
        MOVW     R2,#+1689
        ADD      R1,R6,#+936
        LDR.W    R0,??DataTable244_72
          CFI FunCall _Z12eprBurnValuePcPht
        BL       _Z12eprBurnValuePcPht
//  775 
//  776 //CUSTOMER CMD
//  777 	
//  778 	eprBurnValue(">cfg_language_adjust_type", (uint8_t *)&gCfgItems.multiple_language,EPR_MUTIL_LANGUAGE_FLG);
        MOVW     R2,#+1758
        ADDW     R1,R6,#+447
        ADR.W    R0,`?<Constant ">cfg_language_adjust_...">`
          CFI FunCall _Z12eprBurnValuePcPht
        BL       _Z12eprBurnValuePcPht
//  779 	eprBurnValue(">cfg_language_type", (uint32_t *)&gCfgItems.language_bak);
        ADDW     R1,R6,#+285
        LDR.W    R0,??DataTable244_73
          CFI FunCall _Z12eprBurnValuePcPj
        BL       _Z12eprBurnValuePcPj
//  780 	
//  781 	hexBurnValue(">cfg_background_color",&gCfgItems.background_color,EPR_SCREEN_BKCOLOR);
        MOVW     R2,#+1694
        ADDS     R1,R6,#+4
        ADR.W    R0,`?<Constant ">cfg_background_color">`
          CFI FunCall _Z12hexBurnValuePcPit
        BL       _Z12hexBurnValuePcPit
//  782 	hexBurnValue(">cfg_title_color",&gCfgItems.title_color,EPR_TITIL_COLOR);
        MOVW     R2,#+1698
        ADD      R1,R6,#+8
        ADR.W    R0,`?<Constant ">cfg_title_color">`
          CFI FunCall _Z12hexBurnValuePcPit
        BL       _Z12hexBurnValuePcPit
//  783 	
//  784 	hexBurnValue(">cfg_state_bkcolor",&gCfgItems.state_background_color,EPR_STATE_BKCOLOR);
        MOVW     R2,#+1702
        ADD      R1,R6,#+12
        LDR.W    R0,??DataTable244_74
          CFI FunCall _Z12hexBurnValuePcPit
        BL       _Z12hexBurnValuePcPit
//  785 	hexBurnValue(">cfg_state_textcolor",&gCfgItems.state_text_color,EPR_STATE_TEXTCOLOR);
        MOVW     R2,#+1706
        ADD      R1,R6,#+16
        ADR.W    R0,`?<Constant ">cfg_state_textcolor">`
          CFI FunCall _Z12hexBurnValuePcPit
        BL       _Z12hexBurnValuePcPit
//  786 	hexBurnValue(">cfg_filename_bkcolor",&gCfgItems.filename_background_color,EPR_FILENAME_BKCOLOR);
        MOVW     R2,#+1710
        ADD      R1,R6,#+24
        ADR.W    R0,`?<Constant ">cfg_filename_bkcolor">`
          CFI FunCall _Z12hexBurnValuePcPit
        BL       _Z12hexBurnValuePcPit
//  787 	hexBurnValue(">cfg_filename_textcolor",&gCfgItems.filename_color,EPR_FILENAME_TEXTCOLOR);
        MOVW     R2,#+1714
        ADD      R1,R6,#+20
        LDR.W    R0,??DataTable244_75
          CFI FunCall _Z12hexBurnValuePcPit
        BL       _Z12hexBurnValuePcPit
//  788 	hexBurnValue(">cfg_btn_bkcolor",&gCfgItems.btn_color,EPR_BTN_BKCOLOR);
        MOVW     R2,#+1718
        ADD      R1,R6,#+36
        ADR.W    R0,`?<Constant ">cfg_btn_bkcolor">`
          CFI FunCall _Z12hexBurnValuePcPit
        BL       _Z12hexBurnValuePcPit
//  789 	hexBurnValue(">cfg_btn_textcolor",&gCfgItems.btn_textcolor,EPR_BTN_TEXTCOLOR);
        MOVW     R2,#+1722
        ADD      R1,R6,#+40
        ADR.W    R0,`?<Constant ">cfg_btn_textcolor">`
          CFI FunCall _Z12hexBurnValuePcPit
        BL       _Z12hexBurnValuePcPit
//  790 	hexBurnValue(">cfg_state_btn_bkcolor",&gCfgItems.btn_state_color,EPR_STATE_BTN_BKCOLOR);
        MOVW     R2,#+1726
        ADD      R1,R6,#+44
        ADR.W    R0,`?<Constant ">cfg_state_btn_bkcolor">`
          CFI FunCall _Z12hexBurnValuePcPit
        BL       _Z12hexBurnValuePcPit
//  791 	hexBurnValue(">cfg_state_btn_textcolor",&gCfgItems.btn_state_textcolor,EPR_STATE_BTN_TEXTCOLOR);	
        MOVW     R2,#+1730
        ADD      R1,R6,#+48
        LDR.W    R0,??DataTable244_76
          CFI FunCall _Z12hexBurnValuePcPit
        BL       _Z12hexBurnValuePcPit
//  792 	hexBurnValue(">cfg_back_btn_bkcolor",&gCfgItems.back_btn_color,EPR_BACK_BTN_BKCOLOR);
        MOVW     R2,#+1734
        ADD      R1,R6,#+60
        ADR.W    R0,`?<Constant ">cfg_back_btn_bkcolor">`
          CFI FunCall _Z12hexBurnValuePcPit
        BL       _Z12hexBurnValuePcPit
//  793 	hexBurnValue(">cfg_back_btn_textcolor",&gCfgItems.back_btn_textcolor,EPR_BACK_BTN_TEXTCOLOR);
        MOVW     R2,#+1738
        ADD      R1,R6,#+64
        ADR.W    R0,`?<Constant ">cfg_back_btn_textcolor">`
          CFI FunCall _Z12hexBurnValuePcPit
        BL       _Z12hexBurnValuePcPit
//  794 	hexBurnValue(">cfg_sel_btn_bkcolor",&gCfgItems.btn_state_sel_color,EPR_SEL_BTN_BKCOLOR);
        MOVW     R2,#+1742
        ADD      R1,R6,#+52
        LDR.W    R0,??DataTable244_77
          CFI FunCall _Z12hexBurnValuePcPit
        BL       _Z12hexBurnValuePcPit
//  795 	hexBurnValue(">cfg_sel_btn_textcolor",&gCfgItems.btn_state_sel_textcolor,EPR_SEL_BTN_TEXTCOLOR);
        MOVW     R2,#+1746
        ADD      R1,R6,#+56
        ADR.W    R0,`?<Constant ">cfg_sel_btn_textcolor">`
          CFI FunCall _Z12hexBurnValuePcPit
        BL       _Z12hexBurnValuePcPit
//  796 	hexBurnValue(">cfg_dialog_btn_bkcolor",&gCfgItems.dialog_btn_color,EPR_DIALOG_BTN_BKCOLOR);
        MOVW     R2,#+1750
        ADD      R1,R6,#+84
        ADR.W    R0,`?<Constant ">cfg_dialog_btn_bkcolor">`
          CFI FunCall _Z12hexBurnValuePcPit
        BL       _Z12hexBurnValuePcPit
//  797 	hexBurnValue(">cfg_dialog_btn_textcolor",&gCfgItems.dialog_btn_textcolor,EPR_DIALOG_BTN_TEXTCOLOR);
        MOVW     R2,#+1754
        ADD      R1,R6,#+88
        LDR.W    R0,??DataTable245
          CFI FunCall _Z12hexBurnValuePcPit
        BL       _Z12hexBurnValuePcPit
//  798 
//  799 	eprBurnValue(">cfg_insert_det_module", (uint8_t *)&gCfgItems.insert_det_module, EPR_INSERT_DET_MODULE_TYPE);
        MOVW     R2,#+1799
        ADD      R1,R6,#+444
        ADR.W    R0,`?<Constant ">cfg_insert_det_module">`
          CFI FunCall _Z12eprBurnValuePcPht
        BL       _Z12eprBurnValuePcPht
//  800 	eprBurnValue(">cfg_have_ups_device", (uint8_t *)&gCfgItems.have_ups, EPR_HAS_UPS);
        MOV      R2,#+1800
        ADD      R1,R6,#+205
        ADR.W    R0,`?<Constant ">cfg_have_ups_device">`
          CFI FunCall _Z12eprBurnValuePcPht
        BL       _Z12eprBurnValuePcPht
//  801 	eprBurnValue(">cfg_filament_det0_trigger_level", (uint8_t *)&gCfgItems.filament_det0_level_flg, EPR_FILAMENT_DET0_LEVEL);
        MOVW     R2,#+1801
        ADDW     R1,R6,#+445
        LDR.W    R0,??DataTable245_1
          CFI FunCall _Z12eprBurnValuePcPht
        BL       _Z12eprBurnValuePcPht
//  802 	eprBurnValue(">cfg_filament_det1_trigger_level", (uint8_t *)&gCfgItems.filament_det1_level_flg, EPR_FILAMENT_DET1_LEVEL);
        MOVW     R2,#+1802
        ADD      R1,R6,#+446
        ADR.W    R0,`?<Constant ">cfg_filament_det1_tr...">`
          CFI FunCall _Z12eprBurnValuePcPht
        BL       _Z12eprBurnValuePcPht
//  803 	eprBurnValue(">cfg_mask_det_function", (uint8_t *)&gCfgItems.mask_det_Function, EPR_MASK_DET_FUNCTION);
        MOVW     R2,#+1803
        ADD      R1,R6,#+458
        LDR.W    R0,??DataTable245_2
          CFI FunCall _Z12eprBurnValuePcPht
        BL       _Z12eprBurnValuePcPht
//  804 
//  805 	eprBurnValue(">cfg_filament_load_length", (int32_t *)&gCfgItems.filamentchange_load_length, EPR_FILAMENT_LOAD_LENGTH);
        MOV      R2,#+1768
        ADD      R1,R6,#+228
        ADR.W    R0,`?<Constant ">cfg_filament_load_le...">`
          CFI FunCall _Z12eprBurnValuePcPit
        BL       _Z12eprBurnValuePcPit
//  806 	eprBurnValue(">cfg_filament_load_speed", (int32_t *)&gCfgItems.filamentchange_load_speed, EPR_FILAMENT_LOAD_SPEED);
        MOVW     R2,#+1772
        ADD      R1,R6,#+220
        LDR.W    R0,??DataTable245_3
          CFI FunCall _Z12eprBurnValuePcPit
        BL       _Z12eprBurnValuePcPit
//  807 	eprBurnValue(">cfg_filament_load_limit_temperature", (int32_t *)&gCfgItems.filament_load_limit_temper, EPR_FILAMENT_LOAD_LIMIT_TEMPER);
        MOV      R2,#+1776
        ADD      R1,R6,#+236
        ADR.W    R0,`?<Constant ">cfg_filament_load_li...">`
          CFI FunCall _Z12eprBurnValuePcPit
        BL       _Z12eprBurnValuePcPit
//  808 	eprBurnValue(">cfg_filament_unload_length", (int32_t *)&gCfgItems.filamentchange_unload_length, EPR_FILAMENT_UNLOAD_LENGTH);
        MOVW     R2,#+1780
        ADD      R1,R6,#+232
        LDR.W    R0,??DataTable245_4
          CFI FunCall _Z12eprBurnValuePcPit
        BL       _Z12eprBurnValuePcPit
//  809 	eprBurnValue(">cfg_filament_unload_speed", (int32_t *)&gCfgItems.filamentchange_unload_speed, EPR_FILAMENT_UNLOAD_SPEED);
        MOV      R2,#+1784
        ADD      R1,R6,#+224
        ADR.W    R0,`?<Constant ">cfg_filament_unload_...">_1`
          CFI FunCall _Z12eprBurnValuePcPit
        BL       _Z12eprBurnValuePcPit
//  810 	eprBurnValue(">cfg_filament_unload_limit_temperature", (int32_t *)&gCfgItems.filament_unload_limit_temper, EPR_FILAMENT_UNLOAD_LIMIT_TEMPER);
        MOVW     R2,#+1788
        ADD      R1,R6,#+240
        LDR.W    R0,??DataTable245_5
          CFI FunCall _Z12eprBurnValuePcPit
        BL       _Z12eprBurnValuePcPit
//  811 	
//  812 	eprBurnValue(">setmenu_func1_display", &gCfgItems.func_btn1_display_flag, EPR_SETMENU_FUNC1_DISPLAY_FLG);
        MOVW     R2,#+1793
        ADD      R1,R6,#+213
        ADR.W    R0,`?<Constant ">setmenu_func1_display">`
          CFI FunCall _Z12eprBurnValuePcPht
        BL       _Z12eprBurnValuePcPht
//  813 	flashBurnValue(">setmenu_func1:", BUTTON_FUNCTION1_ADDR);
        MOVW     R4,#+2132
        MOV      R1,R4
        ADR.W    R0,`?<Constant ">setmenu_func1:">`
          CFI FunCall _Z14flashBurnValuePct
        BL       _Z14flashBurnValuePct
//  814 	SPI_FLASH_BufferRead((u8 *)cmd_code,BUTTON_FUNCTION1_ADDR,201);
        MOVS     R2,#+201
        MOV      R1,R4
        MOV      R0,R5
          CFI FunCall SPI_FLASH_BufferRead
        BL       SPI_FLASH_BufferRead
//  815 	eprBurnValue(">moreitem_pic_cnt", &gCfgItems.MoreItem_pic_cnt,EPR_MORE_ITEM_CNT);
        MOVW     R2,#+1794
        ADD      R1,R6,#+212
        ADR.W    R0,`?<Constant ">moreitem_pic_cnt">`
          CFI FunCall _Z12eprBurnValuePcPht
        BL       _Z12eprBurnValuePcPht
//  816 	flashBurnValue(">moreitem_button1_cmd:", BUTTON_CMD1_ADDR);
        MOVS     R1,#+4
        ADR.W    R0,`?<Constant ">moreitem_button1_cmd:">`
          CFI FunCall _Z14flashBurnValuePct
        BL       _Z14flashBurnValuePct
//  817 	flashBurnValue(">moreitem_button2_cmd:", BUTTON_CMD2_ADDR);
        MOVS     R1,#+208
        LDR.W    R0,??DataTable245_6
          CFI FunCall _Z14flashBurnValuePct
        BL       _Z14flashBurnValuePct
//  818 	flashBurnValue(">moreitem_button3_cmd:", BUTTON_CMD3_ADDR);
        MOV      R1,#+412
        LDR.W    R0,??DataTable245_7
          CFI FunCall _Z14flashBurnValuePct
        BL       _Z14flashBurnValuePct
//  819 	flashBurnValue(">moreitem_button4_cmd:", BUTTON_CMD4_ADDR);
        MOV      R1,#+616
        ADR.W    R0,`?<Constant ">moreitem_button4_cmd:">`
          CFI FunCall _Z14flashBurnValuePct
        BL       _Z14flashBurnValuePct
//  820 	flashBurnValue(">moreitem_button5_cmd:", BUTTON_CMD5_ADDR);
        MOV      R1,#+820
        LDR.W    R0,??DataTable245_8
          CFI FunCall _Z14flashBurnValuePct
        BL       _Z14flashBurnValuePct
//  821 	flashBurnValue(">moreitem_button6_cmd:", BUTTON_CMD6_ADDR);
        MOV      R1,#+1024
        ADR.W    R0,`?<Constant ">moreitem_button6_cmd:">`
          CFI FunCall _Z14flashBurnValuePct
        BL       _Z14flashBurnValuePct
//  822 	flashBurnValue(">moreitem_button7_cmd:", BUTTON_CMD7_ADDR);
        MOVW     R1,#+1228
        LDR.W    R0,??DataTable245_9
          CFI FunCall _Z14flashBurnValuePct
        BL       _Z14flashBurnValuePct
//  823 	eprBurnValue(">morefunc_cnt", &gCfgItems.morefunc_cnt,EPR_PRINTING_MENU_MORE_FUNC_CNT);
        MOVW     R2,#+1795
        ADD      R1,R6,#+218
        ADR.W    R0,`?<Constant ">morefunc_cnt">`
          CFI FunCall _Z12eprBurnValuePcPht
        BL       _Z12eprBurnValuePcPht
//  824 	flashBurnValue(">morefunc1_cmd:", BUTTON_MOREFUNC1_ADDR);
        MOVW     R1,#+2540
        ADR.W    R0,`?<Constant ">morefunc1_cmd:">`
          CFI FunCall _Z14flashBurnValuePct
        BL       _Z14flashBurnValuePct
//  825 	flashBurnValue(">morefunc2_cmd:", BUTTON_MOREFUNC2_ADDR);
        MOVW     R1,#+2744
        ADR.W    R0,`?<Constant ">morefunc2_cmd:">`
          CFI FunCall _Z14flashBurnValuePct
        BL       _Z14flashBurnValuePct
//  826 	flashBurnValue(">morefunc3_cmd:", BUTTON_MOREFUNC3_ADDR);
        MOVW     R1,#+2948
        ADR.W    R0,`?<Constant ">morefunc3_cmd:">`
          CFI FunCall _Z14flashBurnValuePct
        BL       _Z14flashBurnValuePct
//  827 	flashBurnValue(">morefunc4_cmd:", BUTTON_MOREFUNC4_ADDR);
        MOV      R1,#+3152
        LDR.W    R0,??DataTable245_10
          CFI FunCall _Z14flashBurnValuePct
        BL       _Z14flashBurnValuePct
//  828 	flashBurnValue(">morefunc5_cmd:", BUTTON_MOREFUNC5_ADDR);
        MOVW     R1,#+3356
        ADR.W    R0,`?<Constant ">morefunc5_cmd:">`
          CFI FunCall _Z14flashBurnValuePct
        BL       _Z14flashBurnValuePct
//  829 	flashBurnValue(">morefunc6_cmd:", BUTTON_MOREFUNC6_ADDR);
        MOVW     R1,#+3560
        ADR.W    R0,`?<Constant ">morefunc6_cmd:">`
          CFI FunCall _Z14flashBurnValuePct
        BL       _Z14flashBurnValuePct
//  830 	
//  831 	eprBurnValue(">cfg_btn_text_offset", (uint8_t *)&gCfgItems.btn_text_offset,EPR_BTN_TEXT_OFFSET);
        MOVW     R2,#+1796
        ADD      R1,R6,#+660
        ADR.W    R0,`?<Constant ">cfg_btn_text_offset">`
          CFI FunCall _Z12eprBurnValuePcPht
        BL       _Z12eprBurnValuePcPht
//  832 	eprBurnValue(">cfg_screen_display_mode", (uint8_t *)&gCfgItems.display_style,EPR_SCREEN_DISPLAY_STYLE);
        MOVW     R2,#+1797
        ADDW     R1,R6,#+661
        LDR.W    R0,??DataTable245_11
          CFI FunCall _Z12eprBurnValuePcPht
        BL       _Z12eprBurnValuePcPht
//  833 	
//  834 	eprBurnValue(">cfg_pwroff_save_mode", (uint8_t *)&gCfgItems.pwroff_save_mode,EPR_PWROFF_SAVE_MODE);
        MOVW     R2,#+1798
        ADDW     R1,R6,#+415
        ADR.W    R0,`?<Constant ">cfg_pwroff_save_mode">`
          CFI FunCall _Z12eprBurnValuePcPht
        BL       _Z12eprBurnValuePcPht
//  835 	
//  836 	//自动调平指令
//  837 	flashBurnValue(">cfg_auto_leveling_cmd:", BUTTON_AUTOLEVELING_ADDR);
        MOV      R1,#+3968
        ADR.W    R0,`?<Constant ">cfg_auto_leveling_cmd:">`
          CFI FunCall _Z14flashBurnValuePct
        BL       _Z14flashBurnValuePct
//  838 	eprBurnValue(">cfg_leveling_mode", (uint8_t *)&gCfgItems.leveling_mode,EPR_LEVELING_MODE);
        MOVW     R2,#+1804
        ADD      R1,R6,#+252
        LDR.N    R0,??DataTable244_78
          CFI FunCall _Z12eprBurnValuePcPht
        BL       _Z12eprBurnValuePcPht
//  839 	eprBurnValue(">cfg_point_number", (uint8_t *)&gCfgItems.leveling_point_number,EPR_LEVELING_POINT_CNT);
        MOVW     R2,#+1805
        ADD      R1,R6,#+253
        ADR.W    R0,`?<Constant ">cfg_point_number">`
          CFI FunCall _Z12eprBurnValuePcPht
        BL       _Z12eprBurnValuePcPht
//  840 	eprBurnValue_leveling(">cfg_point1:",(int32_t *)&gCfgItems.leveling_point1_x,(int32_t *)&gCfgItems.leveling_point1_y,EPR_LEVELING_POINT1_X,EPR_LEVELING_POINT1_Y);
        MOV      R0,#+1808
        STR      R0,[SP, #+0]
        MOVW     R3,#+1806
        ADD      R2,R6,#+256
        ADD      R1,R6,#+254
        ADR.W    R0,`?<Constant ">cfg_point1:">`
          CFI FunCall _Z21eprBurnValue_levelingPcPiS0_tt
        BL       _Z21eprBurnValue_levelingPcPiS0_tt
//  841 	eprBurnValue_leveling(">cfg_point2:",(int32_t *)&gCfgItems.leveling_point2_x,(int32_t *)&gCfgItems.leveling_point2_y,EPR_LEVELING_POINT2_X,EPR_LEVELING_POINT2_Y);
        MOVW     R0,#+1812
        STR      R0,[SP, #+0]
        MOVW     R3,#+1810
        ADD      R2,R6,#+260
        ADD      R1,R6,#+258
        ADR.W    R0,`?<Constant ">cfg_point2:">`
          CFI FunCall _Z21eprBurnValue_levelingPcPiS0_tt
        BL       _Z21eprBurnValue_levelingPcPiS0_tt
//  842 	eprBurnValue_leveling(">cfg_point3:",(int32_t *)&gCfgItems.leveling_point3_x,(int32_t *)&gCfgItems.leveling_point3_y,EPR_LEVELING_POINT3_X,EPR_LEVELING_POINT3_Y);
        MOV      R0,#+1816
        STR      R0,[SP, #+0]
        MOVW     R3,#+1814
        ADD      R2,R6,#+264
        ADD      R1,R6,#+262
        ADR.W    R0,`?<Constant ">cfg_point3:">`
          CFI FunCall _Z21eprBurnValue_levelingPcPiS0_tt
        BL       _Z21eprBurnValue_levelingPcPiS0_tt
//  843 	eprBurnValue_leveling(">cfg_point4:",(int32_t *)&gCfgItems.leveling_point4_x,(int32_t *)&gCfgItems.leveling_point4_y,EPR_LEVELING_POINT4_X,EPR_LEVELING_POINT4_Y);
        MOVW     R0,#+1820
        STR      R0,[SP, #+0]
        MOVW     R3,#+1818
        ADD      R2,R6,#+268
        ADD      R1,R6,#+266
        ADR.W    R0,`?<Constant ">cfg_point4:">`
          CFI FunCall _Z21eprBurnValue_levelingPcPiS0_tt
        BL       _Z21eprBurnValue_levelingPcPiS0_tt
//  844 	eprBurnValue_leveling(">cfg_point5:",(int32_t *)&gCfgItems.leveling_point5_x,(int32_t *)&gCfgItems.leveling_point5_y,EPR_LEVELING_POINT5_X,EPR_LEVELING_POINT5_Y);
        MOV      R0,#+1824
        STR      R0,[SP, #+0]
        MOVW     R3,#+1822
        ADD      R2,R6,#+272
        ADD      R1,R6,#+270
        ADR.W    R0,`?<Constant ">cfg_point5:">`
          CFI FunCall _Z21eprBurnValue_levelingPcPiS0_tt
        BL       _Z21eprBurnValue_levelingPcPiS0_tt
//  845 
//  846 	eprBurnValue(">cfg_print_over_auto_close", (uint8_t *)&gCfgItems.print_finish_close_machine_flg,EPR_AUTO_CLOSE_MACHINE);
        MOVW     R2,#+1826
        ADD      R1,R6,#+217
        ADR.W    R0,`?<Constant ">cfg_print_over_auto_...">`
          CFI FunCall _Z12eprBurnValuePcPht
        BL       _Z12eprBurnValuePcPht
//  847 
//  848 
//  849     eprBurnValue(">Z2_STEPPER_DRIVERS", &mksCfg.z2_enable, EPR_Z2_ENABLE);
        MOVW     R2,#+1828
        ADDW     R1,R6,#+937
        ADR.W    R0,`?<Constant ">Z2_STEPPER_DRIVERS">`
          CFI FunCall _Z12eprBurnValuePcPht
        BL       _Z12eprBurnValuePcPht
//  850     eprBurnValue(">Z2_ENDSTOPS", &mksCfg.z2_endstops_enable, EPR_Z2_ENDSTOP_ENABLE);
        MOVW     R2,#+1829
        ADDW     R1,R6,#+938
        ADR.W    R0,`?<Constant ">Z2_ENDSTOPS">`
          CFI FunCall _Z12eprBurnValuePcPht
        BL       _Z12eprBurnValuePcPht
//  851     eprBurnValue(">Z2_USE_ENDSTOP", &mksCfg.z2_endstop, EPR_Z2_ENDSTOP);
        MOVW     R2,#+1830
        ADDW     R1,R6,#+939
        ADR.W    R0,`?<Constant ">Z2_USE_ENDSTOP">`
          CFI FunCall _Z12eprBurnValuePcPht
        BL       _Z12eprBurnValuePcPht
//  852     
//  853     eprBurnValue(">X_ENABLE_ON", &mksCfg.x_enable_on, EPR_X_ENABLE_ON);
        MOVW     R2,#+1831
        ADD      R1,R6,#+940
        ADR.W    R0,`?<Constant ">X_ENABLE_ON">`
          CFI FunCall _Z12eprBurnValuePcPht
        BL       _Z12eprBurnValuePcPht
//  854     eprBurnValue(">Y_ENABLE_ON", &mksCfg.y_enable_on, EPR_Y_ENABLE_ON);
        MOV      R2,#+1832
        ADDW     R1,R6,#+941
        ADR.W    R0,`?<Constant ">Y_ENABLE_ON">`
          CFI FunCall _Z12eprBurnValuePcPht
        BL       _Z12eprBurnValuePcPht
//  855     eprBurnValue(">Z_ENABLE_ON", &mksCfg.z_enable_on, EPR_Z_ENABLE_ON);
        MOVW     R2,#+1833
        ADDW     R1,R6,#+942
        ADR.W    R0,`?<Constant ">Z_ENABLE_ON">`
          CFI FunCall _Z12eprBurnValuePcPht
        BL       _Z12eprBurnValuePcPht
//  856     eprBurnValue(">E_ENABLE_ON", &mksCfg.e_enable_on, EPR_E_ENABLE_ON);
        MOVW     R2,#+1834
        ADDW     R1,R6,#+943
        ADR.W    R0,`?<Constant ">E_ENABLE_ON">`
          CFI FunCall _Z12eprBurnValuePcPht
        BL       _Z12eprBurnValuePcPht
//  857 
//  858 	eprBurnValue(">SINGLE_NOZZLE", (uint8_t *)&gCfgItems.singleNozzle, EPR_SINGLE_NOZZLE);
        MOVW     R2,#+1836
        ADD      R1,R6,#+668
        ADR.W    R0,`?<Constant ">SINGLE_NOZZLE">`
          CFI FunCall _Z12eprBurnValuePcPht
        BL       _Z12eprBurnValuePcPht
//  859 	eprBurnValue(">ENABLE_LED", (uint8_t *)&gCfgItems.enable_led, EPR_ENABLE_LED);
        MOVW     R2,#+1837
        ADDW     R1,R6,#+669
        ADR.W    R0,`?<Constant ">ENABLE_LED">`
          CFI FunCall _Z12eprBurnValuePcPht
        BL       _Z12eprBurnValuePcPht
//  860 	eprBurnValue(">ENABLE_OFF", (uint8_t *)&gCfgItems.enable_off, EPR_ENABLE_OFF);
        MOVW     R2,#+1838
        ADDW     R1,R6,#+670
        ADR.W    R0,`?<Constant ">ENABLE_OFF">`
          CFI FunCall _Z12eprBurnValuePcPht
        BL       _Z12eprBurnValuePcPht
//  861 	eprBurnValue(">PRINT_FINISHED_COUNT", (int16_t *)&gCfgItems.print_finish_count, EPR_PRINT_FINESH_COUNT);
        MOVW     R2,#+1839
        ADD      R1,R6,#+672
        ADR.W    R0,`?<Constant ">PRINT_FINISHED_COUNT">`
          CFI FunCall _Z12eprBurnValuePcPst
        BL       _Z12eprBurnValuePcPst
//  862 	
//  863 	
//  864 
//  865 	flashBurnValue(">about_type:", ABOUT_TYPE_ADDR);
        MOVW     R1,#+4600
        ADR.W    R0,`?<Constant ">about_type:">`
          CFI FunCall _Z14flashBurnValuePct
        BL       _Z14flashBurnValuePct
//  866 	flashBurnValue(">about_version:", ABOUT_VERSION_ADDR);
        MOVW     R1,#+4804
        ADR.W    R0,`?<Constant ">about_version:">`
          CFI FunCall _Z14flashBurnValuePct
        BL       _Z14flashBurnValuePct
//  867 	
//  868 
//  869     //eprBurnValue(">X_HOME_BUMP_MM", &mksCfg.x_home_bump_mm, EPR_X_HOME_BUMP_MM);
//  870     //eprBurnValue(">Y_HOME_BUMP_MM", &mksCfg.y_home_bump_mm, EPR_Y_HOME_BUMP_MM);
//  871     //eprBurnValue(">Z_HOME_BUMP_MM", &mksCfg.z_home_bump_mm, EPR_Z_HOME_BUMP_MM);
//  872 
//  873     eprBurnValue(">cfg_Standby_mode",(uint8_t *)&gCfgItems.standby_mode,EPR_STANDBY_MODE);
        MOVW     R2,#+1841
        ADDW     R1,R6,#+674
        ADR.W    R0,`?<Constant ">cfg_Standby_mode">`
          CFI FunCall _Z12eprBurnValuePcPht
        BL       _Z12eprBurnValuePcPht
//  874     eprBurnValue(">cfg_Standby_gap_time", (int32_t *)&gCfgItems.standby_time, EPR_STANDBY_TIME);
        MOVW     R2,#+1842
        ADD      R1,R6,#+676
        ADR.W    R0,`?<Constant ">cfg_Standby_gap_time">`
        POP      {R3-R7,LR}
          CFI R4 SameValue
          CFI R5 SameValue
          CFI R6 SameValue
          CFI R7 SameValue
          CFI R14 SameValue
          CFI CFA R13+0
          CFI FunCall _Z12eprBurnValuePcPit
        B.W      _Z12eprBurnValuePcPit
        DATA
??mksEepromRefresh_0:
        DC32     mksTmp
        DC32     `?<Constant ">ERASE_EEPROM">`
        DC32     _ZN7Planner17axis_steps_per_mmE
        DC32     `?<Constant ">DEFAULT_X_STEPS_PER_...">`
        DC32     `?<Constant ">DEFAULT_Y_STEPS_PER_...">`
        DC32     `?<Constant ">DEFAULT_Z_STEPS_PER_...">`
        DC32     `?<Constant ">DEFAULT_E0_STEPS_PER...">`
        DC32     `?<Constant ">DEFAULT_E1_STEPS_PER...">`
        DC32     _ZN7Planner17max_feedrate_mm_sE
        DC32     `?<Constant ">DEFAULT_X_MAX_FEEDRATE">`
        DC32     `?<Constant ">DEFAULT_Y_MAX_FEEDRATE">`
        DC32     `?<Constant ">DEFAULT_Z_MAX_FEEDRATE">`
        DC32     `?<Constant ">DEFAULT_E0_MAX_FEEDRATE">`
        DC32     `?<Constant ">DEFAULT_E1_MAX_FEEDRATE">`
        DC32     _ZN7Planner26max_acceleration_mm_per_s2E
        DC32     `?<Constant ">DEFAULT_X_MAX_ACCELE...">`
        DC32     `?<Constant ">DEFAULT_Y_MAX_ACCELE...">`
        DC32     `?<Constant ">DEFAULT_Z_MAX_ACCELE...">`
          CFI EndBlock cfiBlock18
//  875 
//  876 /*------------------------MKS 新增参数配置 end---------------------------------*/
//  877         
//  878 	
//  879 }

        SECTION `.text`:CODE:NOROOT(2)
        SECTION_TYPE SHT_PROGBITS, 0
        DATA
??DataTable244:
        DC32     `?<Constant ">DEFAULT_E0_MAX_ACCEL...">`

        SECTION `.text`:CODE:NOROOT(2)
        SECTION_TYPE SHT_PROGBITS, 0
        DATA
??DataTable244_1:
        DC32     `?<Constant ">DEFAULT_E1_MAX_ACCEL...">`

        SECTION `.text`:CODE:NOROOT(2)
        SECTION_TYPE SHT_PROGBITS, 0
        DATA
??DataTable244_2:
        DC32     _ZN7Planner12accelerationE

        SECTION `.text`:CODE:NOROOT(2)
        SECTION_TYPE SHT_PROGBITS, 0
        DATA
??DataTable244_3:
        DC32     `?<Constant ">DEFAULT_ACCELERATION">`

        SECTION `.text`:CODE:NOROOT(2)
        SECTION_TYPE SHT_PROGBITS, 0
        DATA
??DataTable244_4:
        DC32     _ZN7Planner20retract_accelerationE

        SECTION `.text`:CODE:NOROOT(2)
        SECTION_TYPE SHT_PROGBITS, 0
        DATA
??DataTable244_5:
        DC32     `?<Constant ">DEFAULT_RETRACT_ACCE...">`

        SECTION `.text`:CODE:NOROOT(2)
        SECTION_TYPE SHT_PROGBITS, 0
        DATA
??DataTable244_6:
        DC32     _ZN7Planner19travel_accelerationE

        SECTION `.text`:CODE:NOROOT(2)
        SECTION_TYPE SHT_PROGBITS, 0
        DATA
??DataTable244_7:
        DC32     `?<Constant ">DEFAULT_TRAVEL_ACCEL...">`

        SECTION `.text`:CODE:NOROOT(2)
        SECTION_TYPE SHT_PROGBITS, 0
        DATA
??DataTable244_8:
        DC32     _ZN7Planner17min_feedrate_mm_sE

        SECTION `.text`:CODE:NOROOT(2)
        SECTION_TYPE SHT_PROGBITS, 0
        DATA
??DataTable244_9:
        DC32     `?<Constant ">DEFAULT_MINIMUMFEEDRATE">`

        SECTION `.text`:CODE:NOROOT(2)
        SECTION_TYPE SHT_PROGBITS, 0
        DATA
??DataTable244_10:
        DC32     _ZN7Planner19min_segment_time_usE

        SECTION `.text`:CODE:NOROOT(2)
        SECTION_TYPE SHT_PROGBITS, 0
        DATA
??DataTable244_11:
        DC32     `?<Constant ">DEFAULT_MINSEGMENTTIME">`

        SECTION `.text`:CODE:NOROOT(2)
        SECTION_TYPE SHT_PROGBITS, 0
        DATA
??DataTable244_12:
        DC32     _ZN7Planner24min_travel_feedrate_mm_sE

        SECTION `.text`:CODE:NOROOT(2)
        SECTION_TYPE SHT_PROGBITS, 0
        DATA
??DataTable244_13:
        DC32     `?<Constant ">DEFAULT_MINTRAVELFEE...">`

        SECTION `.text`:CODE:NOROOT(2)
        SECTION_TYPE SHT_PROGBITS, 0
        DATA
??DataTable244_14:
        DC32     _ZN7Planner8max_jerkE

        SECTION `.text`:CODE:NOROOT(2)
        SECTION_TYPE SHT_PROGBITS, 0
        DATA
??DataTable244_15:
        DC32     `?<Constant ">DEFAULT_XJERK">`

        SECTION `.text`:CODE:NOROOT(2)
        SECTION_TYPE SHT_PROGBITS, 0
        DATA
??DataTable244_16:
        DC32     `?<Constant ">DEFAULT_YJERK">`

        SECTION `.text`:CODE:NOROOT(2)
        SECTION_TYPE SHT_PROGBITS, 0
        DATA
??DataTable244_17:
        DC32     0x88e368f1

        SECTION `.text`:CODE:NOROOT(2)
        SECTION_TYPE SHT_PROGBITS, 0
        DATA
??DataTable244_18:
        DC32     0x3fc4f8b5

        SECTION `.text`:CODE:NOROOT(2)
        SECTION_TYPE SHT_PROGBITS, 0
        DATA
??DataTable244_19:
        DC32     cfg_cloud_flag

        SECTION `.text`:CODE:NOROOT(2)
        SECTION_TYPE SHT_PROGBITS, 0
        DATA
??DataTable244_20:
        DC32     `?<Constant ">CFG_CLOUD_PORT">`

        SECTION `.text`:CODE:NOROOT(2)
        SECTION_TYPE SHT_PROGBITS, 0
        DATA
??DataTable244_21:
        DC32     `?<Constant "99999">`

        SECTION `.text`:CODE:NOROOT(2)
        SECTION_TYPE SHT_PROGBITS, 0
        DATA
??DataTable244_22:
        DC32     _ZN11Temperature5bedKpE

        SECTION `.text`:CODE:NOROOT(2)
        SECTION_TYPE SHT_PROGBITS, 0
        DATA
??DataTable244_23:
        DC32     `?<Constant ">DEFAULT_bedKp">`

        SECTION `.text`:CODE:NOROOT(2)
        SECTION_TYPE SHT_PROGBITS, 0
        DATA
??DataTable244_24:
        DC32     `?<Constant ">DEFAULT_bedKi">`

        SECTION `.text`:CODE:NOROOT(2)
        SECTION_TYPE SHT_PROGBITS, 0
        DATA
??DataTable244_25:
        DC32     _ZN11Temperature5bedKiE

        SECTION `.text`:CODE:NOROOT(2)
        SECTION_TYPE SHT_PROGBITS, 0
        DATA
??DataTable244_26:
        DC32     `?<Constant ">DEFAULT_bedKd">`

        SECTION `.text`:CODE:NOROOT(2)
        SECTION_TYPE SHT_PROGBITS, 0
        DATA
??DataTable244_27:
        DC32     _ZN11Temperature5bedKdE

        SECTION `.text`:CODE:NOROOT(2)
        SECTION_TYPE SHT_PROGBITS, 0
        DATA
??DataTable244_28:
        DC32     zprobe_zoffset

        SECTION `.text`:CODE:NOROOT(2)
        SECTION_TYPE SHT_PROGBITS, 0
        DATA
??DataTable244_29:
        DC32     `?<Constant ">Z_PROBE_OFFSET_FROM_...">`

        SECTION `.text`:CODE:NOROOT(2)
        SECTION_TYPE SHT_PROGBITS, 0
        DATA
??DataTable244_30:
        DC32     delta_radius

        SECTION `.text`:CODE:NOROOT(2)
        SECTION_TYPE SHT_PROGBITS, 0
        DATA
??DataTable244_31:
        DC32     `?<Constant ">DELTA_RADIUS">`

        SECTION `.text`:CODE:NOROOT(2)
        SECTION_TYPE SHT_PROGBITS, 0
        DATA
??DataTable244_32:
        DC32     delta_diagonal_rod

        SECTION `.text`:CODE:NOROOT(2)
        SECTION_TYPE SHT_PROGBITS, 0
        DATA
??DataTable244_33:
        DC32     `?<Constant ">DELTA_DIAGONAL_ROD">`

        SECTION `.text`:CODE:NOROOT(2)
        SECTION_TYPE SHT_PROGBITS, 0
        DATA
??DataTable244_34:
        DC32     delta_segments_per_second

        SECTION `.text`:CODE:NOROOT(2)
        SECTION_TYPE SHT_PROGBITS, 0
        DATA
??DataTable244_35:
        DC32     `?<Constant ">DELTA_SEGMENTS_PER_S...">`

        SECTION `.text`:CODE:NOROOT(2)
        SECTION_TYPE SHT_PROGBITS, 0
        DATA
??DataTable244_36:
        DC32     delta_calibration_radius

        SECTION `.text`:CODE:NOROOT(2)
        SECTION_TYPE SHT_PROGBITS, 0
        DATA
??DataTable244_37:
        DC32     `?<Constant ">DELTA_CALIBRATION_RA...">`

        SECTION `.text`:CODE:NOROOT(2)
        SECTION_TYPE SHT_PROGBITS, 0
        DATA
??DataTable244_38:
        DC32     `?<Constant ">INVERT_X_DIR">`

        SECTION `.text`:CODE:NOROOT(2)
        SECTION_TYPE SHT_PROGBITS, 0
        DATA
??DataTable244_39:
        DC32     `?<Constant ">INVERT_Y_DIR">`

        SECTION `.text`:CODE:NOROOT(2)
        SECTION_TYPE SHT_PROGBITS, 0
        DATA
??DataTable244_40:
        DC32     `?<Constant ">INVERT_Z_DIR">`

        SECTION `.text`:CODE:NOROOT(2)
        SECTION_TYPE SHT_PROGBITS, 0
        DATA
??DataTable244_41:
        DC32     `?<Constant ">INVERT_E0_DIR">`

        SECTION `.text`:CODE:NOROOT(2)
        SECTION_TYPE SHT_PROGBITS, 0
        DATA
??DataTable244_42:
        DC32     `?<Constant ">INVERT_E1_DIR">`

        SECTION `.text`:CODE:NOROOT(2)
        SECTION_TYPE SHT_PROGBITS, 0
        DATA
??DataTable244_43:
        DC32     `?<Constant ">X_HOME_DIR">`

        SECTION `.text`:CODE:NOROOT(2)
        SECTION_TYPE SHT_PROGBITS, 0
        DATA
??DataTable244_44:
        DC32     `?<Constant ">Y_HOME_DIR">`

        SECTION `.text`:CODE:NOROOT(2)
        SECTION_TYPE SHT_PROGBITS, 0
        DATA
??DataTable244_45:
        DC32     `?<Constant ">Z_HOME_DIR">`

        SECTION `.text`:CODE:NOROOT(2)
        SECTION_TYPE SHT_PROGBITS, 0
        DATA
??DataTable244_46:
        DC32     `?<Constant ">X_MIN_POS">`

        SECTION `.text`:CODE:NOROOT(2)
        SECTION_TYPE SHT_PROGBITS, 0
        DATA
??DataTable244_47:
        DC32     `?<Constant ">Y_MIN_POS">`

        SECTION `.text`:CODE:NOROOT(2)
        SECTION_TYPE SHT_PROGBITS, 0
        DATA
??DataTable244_48:
        DC32     `?<Constant ">Z_MIN_POS">`

        SECTION `.text`:CODE:NOROOT(2)
        SECTION_TYPE SHT_PROGBITS, 0
        DATA
??DataTable244_49:
        DC32     `?<Constant ">X_MAX_POS">`

        SECTION `.text`:CODE:NOROOT(2)
        SECTION_TYPE SHT_PROGBITS, 0
        DATA
??DataTable244_50:
        DC32     `?<Constant ">HOMING_FEEDRATE_XY">`

        SECTION `.text`:CODE:NOROOT(2)
        SECTION_TYPE SHT_PROGBITS, 0
        DATA
??DataTable244_51:
        DC32     `?<Constant ">HEATER_1_MAXTEMP">`

        SECTION `.text`:CODE:NOROOT(2)
        SECTION_TYPE SHT_PROGBITS, 0
        DATA
??DataTable244_52:
        DC32     `?<Constant ">Z_MIN_ENDSTOP_INVERTING">`

        SECTION `.text`:CODE:NOROOT(2)
        SECTION_TYPE SHT_PROGBITS, 0
        DATA
??DataTable244_53:
        DC32     `?<Constant ">Z_MAX_ENDSTOP_INVERTING">`

        SECTION `.text`:CODE:NOROOT(2)
        SECTION_TYPE SHT_PROGBITS, 0
        DATA
??DataTable244_54:
        DC32     `?<Constant ">LCD_LANGUAGE">`

        SECTION `.text`:CODE:NOROOT(2)
        SECTION_TYPE SHT_PROGBITS, 0
        DATA
??DataTable244_55:
        DC32     `?<Constant ">DELTA_SMOOTH_ROD_OFFSET">`

        SECTION `.text`:CODE:NOROOT(2)
        SECTION_TYPE SHT_PROGBITS, 0
        DATA
??DataTable244_56:
        DC32     `?<Constant ">DELTA_HEIGHT">`

        SECTION `.text`:CODE:NOROOT(2)
        SECTION_TYPE SHT_PROGBITS, 0
        DATA
??DataTable244_57:
        DC32     delta_height

        SECTION `.text`:CODE:NOROOT(2)
        SECTION_TYPE SHT_PROGBITS, 0
        DATA
??DataTable244_58:
        DC32     `?<Constant ">Z_CLEARANCE_BETWEEN_...">`

        SECTION `.text`:CODE:NOROOT(2)
        SECTION_TYPE SHT_PROGBITS, 0
        DATA
??DataTable244_59:
        DC32     `?<Constant ">Y_PROBE_OFFSET_FROM_...">`

        SECTION `.text`:CODE:NOROOT(2)
        SECTION_TYPE SHT_PROGBITS, 0
        DATA
??DataTable244_60:
        DC32     `?<Constant ">USE_XMIN_PLUG">`

        SECTION `.text`:CODE:NOROOT(2)
        SECTION_TYPE SHT_PROGBITS, 0
        DATA
??DataTable244_61:
        DC32     `?<Constant ">FRONT_PROBE_BED_POSI...">`

        SECTION `.text`:CODE:NOROOT(2)
        SECTION_TYPE SHT_PROGBITS, 0
        DATA
??DataTable244_62:
        DC32     `?<Constant ">MESH_INSET">`

        SECTION `.text`:CODE:NOROOT(2)
        SECTION_TYPE SHT_PROGBITS, 0
        DATA
??DataTable244_63:
        DC32     `?<Constant ">ABL_PROBE_PT_1_Y">`

        SECTION `.text`:CODE:NOROOT(2)
        SECTION_TYPE SHT_PROGBITS, 0
        DATA
??DataTable244_64:
        DC32     `?<Constant ">UBL_MESH_INSET">`

        SECTION `.text`:CODE:NOROOT(2)
        SECTION_TYPE SHT_PROGBITS, 0
        DATA
??DataTable244_65:
        DC32     `?<Constant ">UBL_PROBE_PT_3_X">`

        SECTION `.text`:CODE:NOROOT(2)
        SECTION_TYPE SHT_PROGBITS, 0
        DATA
??DataTable244_66:
        DC32     `?<Constant ">FILAMENT_CHANGE_Y_POS">`

        SECTION `.text`:CODE:NOROOT(2)
        SECTION_TYPE SHT_PROGBITS, 0
        DATA
??DataTable244_67:
        DC32     mksReprint

        SECTION `.text`:CODE:NOROOT(2)
        SECTION_TYPE SHT_PROGBITS, 0
        DATA
??DataTable244_68:
        DC32     `?<Constant ">WATCH_TEMP_PERIOD">`

        SECTION `.text`:CODE:NOROOT(2)
        SECTION_TYPE SHT_PROGBITS, 0
        DATA
??DataTable244_69:
        DC32     `?<Constant ">THERMAL_PROTECTION_B...">`

        SECTION `.text`:CODE:NOROOT(2)
        SECTION_TYPE SHT_PROGBITS, 0
        DATA
??DataTable244_70:
        DC32     `?<Constant ">WATCH_BED_TEMP_PERIOD">`

        SECTION `.text`:CODE:NOROOT(2)
        SECTION_TYPE SHT_PROGBITS, 0
        DATA
??DataTable244_71:
        DC32     `?<Constant ">cfg_hardware_test_en...">`

        SECTION `.text`:CODE:NOROOT(2)
        SECTION_TYPE SHT_PROGBITS, 0
        DATA
??DataTable244_72:
        DC32     `?<Constant ">BLTOUCH">`

        SECTION `.text`:CODE:NOROOT(2)
        SECTION_TYPE SHT_PROGBITS, 0
        DATA
??DataTable244_73:
        DC32     `?<Constant ">cfg_language_type">`

        SECTION `.text`:CODE:NOROOT(2)
        SECTION_TYPE SHT_PROGBITS, 0
        DATA
??DataTable244_74:
        DC32     `?<Constant ">cfg_state_bkcolor">`

        SECTION `.text`:CODE:NOROOT(2)
        SECTION_TYPE SHT_PROGBITS, 0
        DATA
??DataTable244_75:
        DC32     `?<Constant ">cfg_filename_textcolor">`

        SECTION `.text`:CODE:NOROOT(2)
        SECTION_TYPE SHT_PROGBITS, 0
        DATA
??DataTable244_76:
        DC32     `?<Constant ">cfg_state_btn_textcolor">`

        SECTION `.text`:CODE:NOROOT(2)
        SECTION_TYPE SHT_PROGBITS, 0
        DATA
??DataTable244_77:
        DC32     `?<Constant ">cfg_sel_btn_bkcolor">`

        SECTION `.text`:CODE:NOROOT(2)
        SECTION_TYPE SHT_PROGBITS, 0
        DATA
??DataTable244_78:
        DC32     `?<Constant ">cfg_leveling_mode">`

        SECTION `.text`:CODE:NOROOT(2)
        SECTION_TYPE SHT_PROGBITS, 0
        DATA
`?<Constant ">Y_MAX_POS">`:
        DC8 ">Y_MAX_POS"
        DC8 0

        SECTION `.text`:CODE:NOROOT(2)
        SECTION_TYPE SHT_PROGBITS, 0
        DATA
`?<Constant ">Z_MAX_POS">`:
        DC8 ">Z_MAX_POS"
        DC8 0

        SECTION `.text`:CODE:NOROOT(2)
        SECTION_TYPE SHT_PROGBITS, 0
        DATA
`?<Constant ">MIN_SOFTWARE_ENDSTOPS">`:
        DC8 ">MIN_SOFTWARE_ENDSTOPS"
        DC8 0

        SECTION `.text`:CODE:NOROOT(2)
        SECTION_TYPE SHT_PROGBITS, 0
        DATA
`?<Constant ">MAX_SOFTWARE_ENDSTOPS">`:
        DC8 ">MAX_SOFTWARE_ENDSTOPS"
        DC8 0

        SECTION `.text`:CODE:NOROOT(2)
        SECTION_TYPE SHT_PROGBITS, 0
        DATA
`?<Constant ">HOMING_FEEDRATE_Z">`:
        DC8 ">HOMING_FEEDRATE_Z"
        DC8 0

        SECTION `.text`:CODE:NOROOT(2)
        SECTION_TYPE SHT_PROGBITS, 0
        DATA
`?<Constant ">EXTRUDE_MINTEMP">`:
        DC8 ">EXTRUDE_MINTEMP"
        DC8 0, 0, 0

        SECTION `.text`:CODE:NOROOT(2)
        SECTION_TYPE SHT_PROGBITS, 0
        DATA
`?<Constant ">HEATER_0_MINTEMP">`:
        DC8 ">HEATER_0_MINTEMP"
        DC8 0, 0

        SECTION `.text`:CODE:NOROOT(2)
        SECTION_TYPE SHT_PROGBITS, 0
        DATA
`?<Constant ">HEATER_1_MINTEMP">`:
        DC8 ">HEATER_1_MINTEMP"
        DC8 0, 0

        SECTION `.text`:CODE:NOROOT(2)
        SECTION_TYPE SHT_PROGBITS, 0
        DATA
`?<Constant ">TEMP_SENSOR_0">`:
        DC8 ">TEMP_SENSOR_0"
        DC8 0

        SECTION `.text`:CODE:NOROOT(2)
        SECTION_TYPE SHT_PROGBITS, 0
        DATA
`?<Constant ">EXTRUDERS">`:
        DC8 ">EXTRUDERS"
        DC8 0

        SECTION `.text`:CODE:NOROOT(2)
        SECTION_TYPE SHT_PROGBITS, 0
        DATA
`?<Constant ">HEATER_0_MAXTEMP">`:
        DC8 ">HEATER_0_MAXTEMP"
        DC8 0, 0

        SECTION `.text`:CODE:NOROOT(2)
        SECTION_TYPE SHT_PROGBITS, 0
        DATA
`?<Constant ">BED_MAXTEMP">`:
        DC8 ">BED_MAXTEMP"
        DC8 0, 0, 0

        SECTION `.text`:CODE:NOROOT(2)
        SECTION_TYPE SHT_PROGBITS, 0
        DATA
`?<Constant ">PIDTEMPE">`:
        DC8 ">PIDTEMPE"
        DC8 0, 0

        SECTION `.text`:CODE:NOROOT(2)
        SECTION_TYPE SHT_PROGBITS, 0
        DATA
`?<Constant ">PIDTEMPBED">`:
        DC8 ">PIDTEMPBED"

        SECTION `.text`:CODE:NOROOT(2)
        SECTION_TYPE SHT_PROGBITS, 0
        DATA
`?<Constant ">HAS_TEMP_BED">`:
        DC8 ">HAS_TEMP_BED"
        DC8 0, 0

        SECTION `.text`:CODE:NOROOT(2)
        SECTION_TYPE SHT_PROGBITS, 0
        DATA
`?<Constant ">X_MIN_ENDSTOP_INVERTING">`:
        DC8 ">X_MIN_ENDSTOP_INVERTING"
        DC8 0, 0, 0

        SECTION `.text`:CODE:NOROOT(2)
        SECTION_TYPE SHT_PROGBITS, 0
        DATA
`?<Constant ">Y_MIN_ENDSTOP_INVERTING">`:
        DC8 ">Y_MIN_ENDSTOP_INVERTING"
        DC8 0, 0, 0

        SECTION `.text`:CODE:NOROOT(2)
        SECTION_TYPE SHT_PROGBITS, 0
        DATA
`?<Constant ">X_MAX_ENDSTOP_INVERTING">`:
        DC8 ">X_MAX_ENDSTOP_INVERTING"
        DC8 0, 0, 0

        SECTION `.text`:CODE:NOROOT(2)
        SECTION_TYPE SHT_PROGBITS, 0
        DATA
`?<Constant ">Y_MAX_ENDSTOP_INVERTING">`:
        DC8 ">Y_MAX_ENDSTOP_INVERTING"
        DC8 0, 0, 0

        SECTION `.text`:CODE:NOROOT(2)
        SECTION_TYPE SHT_PROGBITS, 0
        DATA
`?<Constant ">Z_MIN_PROBE_ENDSTOP_...">`:
        DC8 ">Z_MIN_PROBE_ENDSTOP_INVERTING"
        DC8 0

        SECTION `.text`:CODE:NOROOT(2)
        SECTION_TYPE SHT_PROGBITS, 0
        DATA
`?<Constant ">HOME_Y_BEFORE_X">`:
        DC8 ">HOME_Y_BEFORE_X"
        DC8 0, 0, 0

        SECTION `.text`:CODE:NOROOT(2)
        SECTION_TYPE SHT_PROGBITS, 0
        DATA
`?<Constant ">BED_LEVELING_METHOD">`:
        DC8 ">BED_LEVELING_METHOD"
        DC8 0, 0, 0

        SECTION `.text`:CODE:NOROOT(2)
        SECTION_TYPE SHT_PROGBITS, 0
        DATA
`?<Constant ">DELTA_EFFECTOR_OFFSET">`:
        DC8 ">DELTA_EFFECTOR_OFFSET"
        DC8 0

        SECTION `.text`:CODE:NOROOT(2)
        SECTION_TYPE SHT_PROGBITS, 0
        DATA
`?<Constant ">DELTA_CARRIAGE_OFFSET">`:
        DC8 ">DELTA_CARRIAGE_OFFSET"
        DC8 0

        SECTION `.text`:CODE:NOROOT(2)
        SECTION_TYPE SHT_PROGBITS, 0
        DATA
`?<Constant ">DELTA_PRINTABLE_RADIUS">`:
        DC8 ">DELTA_PRINTABLE_RADIUS"

        SECTION `.text`:CODE:NOROOT(2)
        SECTION_TYPE SHT_PROGBITS, 0
        DATA
`?<Constant ">MACHINETPYE">`:
        DC8 ">MACHINETPYE"
        DC8 0, 0, 0

        SECTION `.text`:CODE:NOROOT(2)
        SECTION_TYPE SHT_PROGBITS, 0
        DATA
`?<Constant ">CURRENT_VREF_XY">`:
        DC8 ">CURRENT_VREF_XY"
        DC8 0, 0, 0

        SECTION `.text`:CODE:NOROOT(2)
        SECTION_TYPE SHT_PROGBITS, 0
        DATA
`?<Constant ">CURRENT_VREF_Z">`:
        DC8 ">CURRENT_VREF_Z"

        SECTION `.text`:CODE:NOROOT(2)
        SECTION_TYPE SHT_PROGBITS, 0
        DATA
`?<Constant ">CURRENT_VREF_E">`:
        DC8 ">CURRENT_VREF_E"

        SECTION `.text`:CODE:NOROOT(2)
        SECTION_TYPE SHT_PROGBITS, 0
        DATA
`?<Constant ">GRID_MAX_POINTS_X">`:
        DC8 ">GRID_MAX_POINTS_X"
        DC8 0

        SECTION `.text`:CODE:NOROOT(2)
        SECTION_TYPE SHT_PROGBITS, 0
        DATA
`?<Constant ">GRID_MAX_POINTS_Y">`:
        DC8 ">GRID_MAX_POINTS_Y"
        DC8 0

        SECTION `.text`:CODE:NOROOT(2)
        SECTION_TYPE SHT_PROGBITS, 0
        DATA
`?<Constant ">Z_CLEARANCE_DEPLOY_P...">`:
        DC8 ">Z_CLEARANCE_DEPLOY_PROBE"
        DC8 0, 0

        SECTION `.text`:CODE:NOROOT(2)
        SECTION_TYPE SHT_PROGBITS, 0
        DATA
`?<Constant ">X_PROBE_OFFSET_FROM_...">`:
        DC8 ">X_PROBE_OFFSET_FROM_EXTRUDER"
        DC8 0, 0

        SECTION `.text`:CODE:NOROOT(2)
        SECTION_TYPE SHT_PROGBITS, 0
        DATA
`?<Constant ">XY_PROBE_SPEED">`:
        DC8 ">XY_PROBE_SPEED"

        SECTION `.text`:CODE:NOROOT(2)
        SECTION_TYPE SHT_PROGBITS, 0
        DATA
`?<Constant ">Z_PROBE_SPEED_FAST">`:
        DC8 ">Z_PROBE_SPEED_FAST"

        SECTION `.text`:CODE:NOROOT(2)
        SECTION_TYPE SHT_PROGBITS, 0
        DATA
`?<Constant ">Z_PROBE_SPEED_SLOW">`:
        DC8 ">Z_PROBE_SPEED_SLOW"

        SECTION `.text`:CODE:NOROOT(2)
        SECTION_TYPE SHT_PROGBITS, 0
        DATA
`?<Constant ">USE_YMIN_PLUG">`:
        DC8 ">USE_YMIN_PLUG"
        DC8 0

        SECTION `.text`:CODE:NOROOT(2)
        SECTION_TYPE SHT_PROGBITS, 0
        DATA
`?<Constant ">USE_ZMIN_PLUG">`:
        DC8 ">USE_ZMIN_PLUG"
        DC8 0

        SECTION `.text`:CODE:NOROOT(2)
        SECTION_TYPE SHT_PROGBITS, 0
        DATA
`?<Constant ">USE_XMAX_PLUG">`:
        DC8 ">USE_XMAX_PLUG"
        DC8 0

        SECTION `.text`:CODE:NOROOT(2)
        SECTION_TYPE SHT_PROGBITS, 0
        DATA
`?<Constant ">USE_YMAX_PLUG">`:
        DC8 ">USE_YMAX_PLUG"
        DC8 0

        SECTION `.text`:CODE:NOROOT(2)
        SECTION_TYPE SHT_PROGBITS, 0
        DATA
`?<Constant ">USE_ZMAX_PLUG">`:
        DC8 ">USE_ZMAX_PLUG"
        DC8 0

        SECTION `.text`:CODE:NOROOT(2)
        SECTION_TYPE SHT_PROGBITS, 0
        DATA
`?<Constant ">LEFT_PROBE_BED_POSITION">`:
        DC8 ">LEFT_PROBE_BED_POSITION"
        DC8 0, 0, 0

        SECTION `.text`:CODE:NOROOT(2)
        SECTION_TYPE SHT_PROGBITS, 0
        DATA
`?<Constant ">RIGHT_PROBE_BED_POSI...">`:
        DC8 ">RIGHT_PROBE_BED_POSITION"
        DC8 0, 0

        SECTION `.text`:CODE:NOROOT(2)
        SECTION_TYPE SHT_PROGBITS, 0
        DATA
`?<Constant ">BACK_PROBE_BED_POSITION">`:
        DC8 ">BACK_PROBE_BED_POSITION"
        DC8 0, 0, 0

        SECTION `.text`:CODE:NOROOT(2)
        SECTION_TYPE SHT_PROGBITS, 0
        DATA
`?<Constant ">Z_MIN_PROBE_PIN_MODE">`:
        DC8 ">Z_MIN_PROBE_PIN_MODE"
        DC8 0, 0

        SECTION `.text`:CODE:NOROOT(2)
        SECTION_TYPE SHT_PROGBITS, 0
        DATA
`?<Constant ">ABL_PROBE_PT_1_X">`:
        DC8 ">ABL_PROBE_PT_1_X"
        DC8 0, 0

        SECTION `.text`:CODE:NOROOT(2)
        SECTION_TYPE SHT_PROGBITS, 0
        DATA
`?<Constant ">ABL_PROBE_PT_2_X">`:
        DC8 ">ABL_PROBE_PT_2_X"
        DC8 0, 0

        SECTION `.text`:CODE:NOROOT(2)
        SECTION_TYPE SHT_PROGBITS, 0
        DATA
`?<Constant ">ABL_PROBE_PT_2_Y">`:
        DC8 ">ABL_PROBE_PT_2_Y"
        DC8 0, 0

        SECTION `.text`:CODE:NOROOT(2)
        SECTION_TYPE SHT_PROGBITS, 0
        DATA
`?<Constant ">ABL_PROBE_PT_3_X">`:
        DC8 ">ABL_PROBE_PT_3_X"
        DC8 0, 0

        SECTION `.text`:CODE:NOROOT(2)
        SECTION_TYPE SHT_PROGBITS, 0
        DATA
`?<Constant ">ABL_PROBE_PT_3_Y">`:
        DC8 ">ABL_PROBE_PT_3_Y"
        DC8 0, 0

        SECTION `.text`:CODE:NOROOT(2)
        SECTION_TYPE SHT_PROGBITS, 0
        DATA
`?<Constant ">UBL_PROBE_PT_1_X">`:
        DC8 ">UBL_PROBE_PT_1_X"
        DC8 0, 0

        SECTION `.text`:CODE:NOROOT(2)
        SECTION_TYPE SHT_PROGBITS, 0
        DATA
`?<Constant ">UBL_PROBE_PT_1_Y">`:
        DC8 ">UBL_PROBE_PT_1_Y"
        DC8 0, 0

        SECTION `.text`:CODE:NOROOT(2)
        SECTION_TYPE SHT_PROGBITS, 0
        DATA
`?<Constant ">UBL_PROBE_PT_2_X">`:
        DC8 ">UBL_PROBE_PT_2_X"
        DC8 0, 0

        SECTION `.text`:CODE:NOROOT(2)
        SECTION_TYPE SHT_PROGBITS, 0
        DATA
`?<Constant ">UBL_PROBE_PT_2_Y">`:
        DC8 ">UBL_PROBE_PT_2_Y"
        DC8 0, 0

        SECTION `.text`:CODE:NOROOT(2)
        SECTION_TYPE SHT_PROGBITS, 0
        DATA
`?<Constant ">UBL_PROBE_PT_3_Y">`:
        DC8 ">UBL_PROBE_PT_3_Y"
        DC8 0, 0

        SECTION `.text`:CODE:NOROOT(2)
        SECTION_TYPE SHT_PROGBITS, 0
        DATA
`?<Constant ">FIL_RUNOUT_INVERTING">`:
        DC8 ">FIL_RUNOUT_INVERTING"
        DC8 0, 0

        SECTION `.text`:CODE:NOROOT(2)
        SECTION_TYPE SHT_PROGBITS, 0
        DATA
`?<Constant ">FILAMENT_CHANGE_X_POS">`:
        DC8 ">FILAMENT_CHANGE_X_POS"
        DC8 0

        SECTION `.text`:CODE:NOROOT(2)
        SECTION_TYPE SHT_PROGBITS, 0
        DATA
`?<Constant ">FILAMENT_CHANGE_Z_ADD">`:
        DC8 ">FILAMENT_CHANGE_Z_ADD"
        DC8 0

        SECTION `.text`:CODE:NOROOT(2)
        SECTION_TYPE SHT_PROGBITS, 0
        DATA
`?<Constant ">HOME_X_POS">`:
        DC8 ">HOME_X_POS"

        SECTION `.text`:CODE:NOROOT(2)
        SECTION_TYPE SHT_PROGBITS, 0
        DATA
`?<Constant ">HOME_Y_POS">`:
        DC8 ">HOME_Y_POS"

        SECTION `.text`:CODE:NOROOT(2)
        SECTION_TYPE SHT_PROGBITS, 0
        DATA
`?<Constant ">THERMAL_PROTECTION_P...">`:
        DC8 ">THERMAL_PROTECTION_PERIOD"
        DC8 0

        SECTION `.text`:CODE:NOROOT(2)
        SECTION_TYPE SHT_PROGBITS, 0
        DATA
`?<Constant ">THERMAL_PROTECTION_H...">`:
        DC8 ">THERMAL_PROTECTION_HYSTERESIS"
        DC8 0

        SECTION `.text`:CODE:NOROOT(2)
        SECTION_TYPE SHT_PROGBITS, 0
        DATA
`?<Constant ">WATCH_TEMP_INCREASE">`:
        DC8 ">WATCH_TEMP_INCREASE"
        DC8 0, 0, 0

        SECTION `.text`:CODE:NOROOT(2)
        SECTION_TYPE SHT_PROGBITS, 0
        DATA
`?<Constant ">THERMAL_PROTECTION_B...">_1`:
        DC8 ">THERMAL_PROTECTION_BED_HYSTERESIS"
        DC8 0

        SECTION `.text`:CODE:NOROOT(2)
        SECTION_TYPE SHT_PROGBITS, 0
        DATA
`?<Constant ">WATCH_BED_TEMP_INCREASE">`:
        DC8 ">WATCH_BED_TEMP_INCREASE"
        DC8 0, 0, 0

        SECTION `.text`:CODE:NOROOT(2)
        SECTION_TYPE SHT_PROGBITS, 0
        DATA
`?<Constant ">HOTEND_OFFSET_X">`:
        DC8 ">HOTEND_OFFSET_X"
        DC8 0, 0, 0

        SECTION `.text`:CODE:NOROOT(2)
        SECTION_TYPE SHT_PROGBITS, 0
        DATA
`?<Constant ">HOTEND_OFFSET_Y">`:
        DC8 ">HOTEND_OFFSET_Y"
        DC8 0, 0, 0

        SECTION `.text`:CODE:NOROOT(2)
        SECTION_TYPE SHT_PROGBITS, 0
        DATA
`?<Constant ">cfg_language_adjust_...">`:
        DC8 ">cfg_language_adjust_type"
        DC8 0, 0

        SECTION `.text`:CODE:NOROOT(2)
        SECTION_TYPE SHT_PROGBITS, 0
        DATA
`?<Constant ">cfg_background_color">`:
        DC8 ">cfg_background_color"
        DC8 0, 0

        SECTION `.text`:CODE:NOROOT(2)
        SECTION_TYPE SHT_PROGBITS, 0
        DATA
`?<Constant ">cfg_title_color">`:
        DC8 ">cfg_title_color"
        DC8 0, 0, 0

        SECTION `.text`:CODE:NOROOT(2)
        SECTION_TYPE SHT_PROGBITS, 0
        DATA
`?<Constant ">cfg_state_textcolor">`:
        DC8 ">cfg_state_textcolor"
        DC8 0, 0, 0

        SECTION `.text`:CODE:NOROOT(2)
        SECTION_TYPE SHT_PROGBITS, 0
        DATA
`?<Constant ">cfg_filename_bkcolor">`:
        DC8 ">cfg_filename_bkcolor"
        DC8 0, 0

        SECTION `.text`:CODE:NOROOT(2)
        SECTION_TYPE SHT_PROGBITS, 0
        DATA
`?<Constant ">cfg_btn_bkcolor">`:
        DC8 ">cfg_btn_bkcolor"
        DC8 0, 0, 0

        SECTION `.text`:CODE:NOROOT(2)
        SECTION_TYPE SHT_PROGBITS, 0
        DATA
`?<Constant ">cfg_btn_textcolor">`:
        DC8 ">cfg_btn_textcolor"
        DC8 0

        SECTION `.text`:CODE:NOROOT(2)
        SECTION_TYPE SHT_PROGBITS, 0
        DATA
`?<Constant ">cfg_state_btn_bkcolor">`:
        DC8 ">cfg_state_btn_bkcolor"
        DC8 0

        SECTION `.text`:CODE:NOROOT(2)
        SECTION_TYPE SHT_PROGBITS, 0
        DATA
`?<Constant ">cfg_back_btn_bkcolor">`:
        DC8 ">cfg_back_btn_bkcolor"
        DC8 0, 0

        SECTION `.text`:CODE:NOROOT(2)
        SECTION_TYPE SHT_PROGBITS, 0
        DATA
`?<Constant ">cfg_back_btn_textcolor">`:
        DC8 ">cfg_back_btn_textcolor"

        SECTION `.text`:CODE:NOROOT(2)
        SECTION_TYPE SHT_PROGBITS, 0
        DATA
`?<Constant ">cfg_sel_btn_textcolor">`:
        DC8 ">cfg_sel_btn_textcolor"
        DC8 0

        SECTION `.text`:CODE:NOROOT(2)
        SECTION_TYPE SHT_PROGBITS, 0
        DATA
`?<Constant ">cfg_dialog_btn_bkcolor">`:
        DC8 ">cfg_dialog_btn_bkcolor"

        SECTION `.text`:CODE:NOROOT(2)
        SECTION_TYPE SHT_PROGBITS, 0
        DATA
`?<Constant ">cfg_insert_det_module">`:
        DC8 ">cfg_insert_det_module"
        DC8 0

        SECTION `.text`:CODE:NOROOT(2)
        SECTION_TYPE SHT_PROGBITS, 0
        DATA
`?<Constant ">cfg_have_ups_device">`:
        DC8 ">cfg_have_ups_device"
        DC8 0, 0, 0

        SECTION `.text`:CODE:NOROOT(2)
        SECTION_TYPE SHT_PROGBITS, 0
        DATA
`?<Constant ">cfg_filament_det1_tr...">`:
        DC8 ">cfg_filament_det1_trigger_level"
        DC8 0, 0, 0

        SECTION `.text`:CODE:NOROOT(2)
        SECTION_TYPE SHT_PROGBITS, 0
        DATA
`?<Constant ">cfg_filament_load_le...">`:
        DC8 ">cfg_filament_load_length"
        DC8 0, 0

        SECTION `.text`:CODE:NOROOT(2)
        SECTION_TYPE SHT_PROGBITS, 0
        DATA
`?<Constant ">cfg_filament_load_li...">`:
        DC8 ">cfg_filament_load_limit_temperature"
        DC8 0, 0, 0

        SECTION `.text`:CODE:NOROOT(2)
        SECTION_TYPE SHT_PROGBITS, 0
        DATA
`?<Constant ">cfg_filament_unload_...">_1`:
        DC8 ">cfg_filament_unload_speed"
        DC8 0

        SECTION `.text`:CODE:NOROOT(2)
        SECTION_TYPE SHT_PROGBITS, 0
        DATA
`?<Constant ">setmenu_func1_display">`:
        DC8 ">setmenu_func1_display"
        DC8 0

        SECTION `.text`:CODE:NOROOT(2)
        SECTION_TYPE SHT_PROGBITS, 0
        DATA
`?<Constant ">setmenu_func1:">`:
        DC8 ">setmenu_func1:"

        SECTION `.text`:CODE:NOROOT(2)
        SECTION_TYPE SHT_PROGBITS, 0
        DATA
`?<Constant ">moreitem_pic_cnt">`:
        DC8 ">moreitem_pic_cnt"
        DC8 0, 0

        SECTION `.text`:CODE:NOROOT(2)
        SECTION_TYPE SHT_PROGBITS, 0
        DATA
`?<Constant ">moreitem_button1_cmd:">`:
        DC8 ">moreitem_button1_cmd:"
        DC8 0

        SECTION `.text`:CODE:NOROOT(2)
        SECTION_TYPE SHT_PROGBITS, 0
        DATA
`?<Constant ">moreitem_button4_cmd:">`:
        DC8 ">moreitem_button4_cmd:"
        DC8 0

        SECTION `.text`:CODE:NOROOT(2)
        SECTION_TYPE SHT_PROGBITS, 0
        DATA
`?<Constant ">moreitem_button6_cmd:">`:
        DC8 ">moreitem_button6_cmd:"
        DC8 0

        SECTION `.text`:CODE:NOROOT(2)
        SECTION_TYPE SHT_PROGBITS, 0
        DATA
`?<Constant ">morefunc_cnt">`:
        DC8 ">morefunc_cnt"
        DC8 0, 0

        SECTION `.text`:CODE:NOROOT(2)
        SECTION_TYPE SHT_PROGBITS, 0
        DATA
`?<Constant ">morefunc1_cmd:">`:
        DC8 ">morefunc1_cmd:"

        SECTION `.text`:CODE:NOROOT(2)
        SECTION_TYPE SHT_PROGBITS, 0
        DATA
`?<Constant ">morefunc2_cmd:">`:
        DC8 ">morefunc2_cmd:"

        SECTION `.text`:CODE:NOROOT(2)
        SECTION_TYPE SHT_PROGBITS, 0
        DATA
`?<Constant ">morefunc3_cmd:">`:
        DC8 ">morefunc3_cmd:"

        SECTION `.text`:CODE:NOROOT(2)
        SECTION_TYPE SHT_PROGBITS, 0
        DATA
`?<Constant ">morefunc5_cmd:">`:
        DC8 ">morefunc5_cmd:"

        SECTION `.text`:CODE:NOROOT(2)
        SECTION_TYPE SHT_PROGBITS, 0
        DATA
`?<Constant ">morefunc6_cmd:">`:
        DC8 ">morefunc6_cmd:"

        SECTION `.text`:CODE:NOROOT(2)
        SECTION_TYPE SHT_PROGBITS, 0
        DATA
`?<Constant ">cfg_btn_text_offset">`:
        DC8 ">cfg_btn_text_offset"
        DC8 0, 0, 0

        SECTION `.text`:CODE:NOROOT(2)
        SECTION_TYPE SHT_PROGBITS, 0
        DATA
`?<Constant ">cfg_pwroff_save_mode">`:
        DC8 ">cfg_pwroff_save_mode"
        DC8 0, 0

        SECTION `.text`:CODE:NOROOT(2)
        SECTION_TYPE SHT_PROGBITS, 0
        DATA
`?<Constant ">cfg_auto_leveling_cmd:">`:
        DC8 ">cfg_auto_leveling_cmd:"

        SECTION `.text`:CODE:NOROOT(2)
        SECTION_TYPE SHT_PROGBITS, 0
        DATA
`?<Constant ">cfg_point_number">`:
        DC8 ">cfg_point_number"
        DC8 0, 0

        SECTION `.text`:CODE:NOROOT(2)
        SECTION_TYPE SHT_PROGBITS, 0
        DATA
`?<Constant ">cfg_point1:">`:
        DC8 ">cfg_point1:"
        DC8 0, 0, 0

        SECTION `.text`:CODE:NOROOT(2)
        SECTION_TYPE SHT_PROGBITS, 0
        DATA
`?<Constant ">cfg_point2:">`:
        DC8 ">cfg_point2:"
        DC8 0, 0, 0

        SECTION `.text`:CODE:NOROOT(2)
        SECTION_TYPE SHT_PROGBITS, 0
        DATA
`?<Constant ">cfg_point3:">`:
        DC8 ">cfg_point3:"
        DC8 0, 0, 0

        SECTION `.text`:CODE:NOROOT(2)
        SECTION_TYPE SHT_PROGBITS, 0
        DATA
`?<Constant ">cfg_point4:">`:
        DC8 ">cfg_point4:"
        DC8 0, 0, 0

        SECTION `.text`:CODE:NOROOT(2)
        SECTION_TYPE SHT_PROGBITS, 0
        DATA
`?<Constant ">cfg_point5:">`:
        DC8 ">cfg_point5:"
        DC8 0, 0, 0

        SECTION `.text`:CODE:NOROOT(2)
        SECTION_TYPE SHT_PROGBITS, 0
        DATA
`?<Constant ">cfg_print_over_auto_...">`:
        DC8 ">cfg_print_over_auto_close"
        DC8 0

        SECTION `.text`:CODE:NOROOT(2)
        SECTION_TYPE SHT_PROGBITS, 0
        DATA
`?<Constant ">Z2_STEPPER_DRIVERS">`:
        DC8 ">Z2_STEPPER_DRIVERS"

        SECTION `.text`:CODE:NOROOT(2)
        SECTION_TYPE SHT_PROGBITS, 0
        DATA
`?<Constant ">Z2_ENDSTOPS">`:
        DC8 ">Z2_ENDSTOPS"
        DC8 0, 0, 0

        SECTION `.text`:CODE:NOROOT(2)
        SECTION_TYPE SHT_PROGBITS, 0
        DATA
`?<Constant ">Z2_USE_ENDSTOP">`:
        DC8 ">Z2_USE_ENDSTOP"

        SECTION `.text`:CODE:NOROOT(2)
        SECTION_TYPE SHT_PROGBITS, 0
        DATA
`?<Constant ">X_ENABLE_ON">`:
        DC8 ">X_ENABLE_ON"
        DC8 0, 0, 0

        SECTION `.text`:CODE:NOROOT(2)
        SECTION_TYPE SHT_PROGBITS, 0
        DATA
`?<Constant ">Y_ENABLE_ON">`:
        DC8 ">Y_ENABLE_ON"
        DC8 0, 0, 0

        SECTION `.text`:CODE:NOROOT(2)
        SECTION_TYPE SHT_PROGBITS, 0
        DATA
`?<Constant ">Z_ENABLE_ON">`:
        DC8 ">Z_ENABLE_ON"
        DC8 0, 0, 0

        SECTION `.text`:CODE:NOROOT(2)
        SECTION_TYPE SHT_PROGBITS, 0
        DATA
`?<Constant ">E_ENABLE_ON">`:
        DC8 ">E_ENABLE_ON"
        DC8 0, 0, 0

        SECTION `.text`:CODE:NOROOT(2)
        SECTION_TYPE SHT_PROGBITS, 0
        DATA
`?<Constant ">SINGLE_NOZZLE">`:
        DC8 ">SINGLE_NOZZLE"
        DC8 0

        SECTION `.text`:CODE:NOROOT(2)
        SECTION_TYPE SHT_PROGBITS, 0
        DATA
`?<Constant ">ENABLE_LED">`:
        DC8 ">ENABLE_LED"

        SECTION `.text`:CODE:NOROOT(2)
        SECTION_TYPE SHT_PROGBITS, 0
        DATA
`?<Constant ">ENABLE_OFF">`:
        DC8 ">ENABLE_OFF"

        SECTION `.text`:CODE:NOROOT(2)
        SECTION_TYPE SHT_PROGBITS, 0
        DATA
`?<Constant ">PRINT_FINISHED_COUNT">`:
        DC8 ">PRINT_FINISHED_COUNT"
        DC8 0, 0

        SECTION `.text`:CODE:NOROOT(2)
        SECTION_TYPE SHT_PROGBITS, 0
        DATA
`?<Constant ">about_type:">`:
        DC8 ">about_type:"
        DC8 0, 0, 0

        SECTION `.text`:CODE:NOROOT(2)
        SECTION_TYPE SHT_PROGBITS, 0
        DATA
`?<Constant ">about_version:">`:
        DC8 ">about_version:"

        SECTION `.text`:CODE:NOROOT(2)
        SECTION_TYPE SHT_PROGBITS, 0
        DATA
`?<Constant ">cfg_Standby_mode">`:
        DC8 ">cfg_Standby_mode"
        DC8 0, 0

        SECTION `.text`:CODE:NOROOT(2)
        SECTION_TYPE SHT_PROGBITS, 0
        DATA
`?<Constant ">cfg_Standby_gap_time">`:
        DC8 ">cfg_Standby_gap_time"
        DC8 0, 0
//  880 
//  881 

        SECTION `.text`:CODE:NOROOT(1)
          CFI Block cfiBlock19 Using cfiCommon0
          CFI Function epr_write_data
        THUMB
//  882 void epr_write_data(uint16_t pos, const uint8_t* value, uint16_t size)
//  883 	{
epr_write_data:
        PUSH     {R4-R6,LR}
          CFI R14 Frame(CFA, -4)
          CFI R6 Frame(CFA, -8)
          CFI R5 Frame(CFA, -12)
          CFI R4 Frame(CFA, -16)
          CFI CFA R13+16
        SUB      SP,SP,#+8
          CFI CFA R13+24
        MOV      R4,R0
        MOV      R5,R1
        MOV      R6,R2
        B.N      ??epr_write_data_0
//  884   while (size--) {
//  885 	const uint8_t v = *value;
//  886 	uint8_t eppr_r;
//  887         
//  888 	AT24CXX_Read((uint16_t)pos,&eppr_r,1);
//  889 	
//  890 	if (v != eppr_r) {		 
//  891 	  AT24CXX_Write((uint16_t)pos, (uint8_t *)&v,1);
//  892   
//  893 	  AT24CXX_Read((uint16_t)pos,&eppr_r,1);
//  894 	  if (eppr_r != v) {
//  895 		SERIAL_ECHO_START();
//  896 		SERIAL_ECHOPGM("Error writing to EEPROM:");
//  897 	  	char *p = dst_buf;
//  898 		while(*p != 0)	SERIAL_CHAR(*p++);
//  899 		SERIAL_EOL();
//  900 		return;
//  901 	  }
//  902 	}
//  903 	pos++;
??epr_write_data_1:
        ADDS     R4,R4,#+1
//  904 	value++;
        ADDS     R5,R5,#+1
??epr_write_data_0:
        MOV      R0,R6
        SUBS     R6,R0,#+1
        UXTH     R0,R0
        CMP      R0,#+0
        BEQ.N    ??epr_write_data_2
        LDRB     R0,[R5, #+0]
        STRB     R0,[SP, #+1]
        MOVS     R2,#+1
        ADD      R1,SP,#+0
        MOV      R0,R4
        UXTH     R0,R0
          CFI FunCall AT24CXX_Read
        BL       AT24CXX_Read
        LDRB     R0,[SP, #+1]
        LDRB     R1,[SP, #+0]
        CMP      R0,R1
        BEQ.N    ??epr_write_data_1
        MOVS     R2,#+1
        ADD      R1,SP,#+1
        MOV      R0,R4
        UXTH     R0,R0
          CFI FunCall AT24CXX_Write
        BL       AT24CXX_Write
        MOVS     R2,#+1
        ADD      R1,SP,#+0
        MOV      R0,R4
        UXTH     R0,R0
          CFI FunCall AT24CXX_Read
        BL       AT24CXX_Read
        LDRB     R0,[SP, #+0]
        LDRB     R1,[SP, #+1]
        CMP      R0,R1
        BEQ.N    ??epr_write_data_1
        LDR.W    R0,??DataTable246
          CFI FunCall _Z14serialprintPGMPKc
        BL       _Z14serialprintPGMPKc
        ADR.W    R0,`?<Constant "Error writing to EEPROM:">`
          CFI FunCall _Z14serialprintPGMPKc
        BL       _Z14serialprintPGMPKc
        LDR.W    R4,??DataTable246_1
        B.N      ??epr_write_data_3
??epr_write_data_4:
        LDRB     R1,[R4], #+1
          CFI FunCall _ZN10USARTClass5writeEh
        BL       _ZN10USARTClass5writeEh
??epr_write_data_3:
        LDR.W    R0,??DataTable247
        LDRSB    R1,[R4, #+0]
        CMP      R1,#+0
        BNE.N    ??epr_write_data_4
        MOVS     R1,#+10
          CFI FunCall _ZN10USARTClass5writeEh
        BL       _ZN10USARTClass5writeEh
//  905   }
//  906 }
??epr_write_data_2:
        POP      {R0,R1,R4-R6,PC}  ;; return
          CFI EndBlock cfiBlock19

        SECTION `.text`:CODE:NOROOT(2)
        SECTION_TYPE SHT_PROGBITS, 0
        DATA
??DataTable245:
        DC32     `?<Constant ">cfg_dialog_btn_textc...">`

        SECTION `.text`:CODE:NOROOT(2)
        SECTION_TYPE SHT_PROGBITS, 0
        DATA
??DataTable245_1:
        DC32     `?<Constant ">cfg_filament_det0_tr...">`

        SECTION `.text`:CODE:NOROOT(2)
        SECTION_TYPE SHT_PROGBITS, 0
        DATA
??DataTable245_2:
        DC32     `?<Constant ">cfg_mask_det_function">`

        SECTION `.text`:CODE:NOROOT(2)
        SECTION_TYPE SHT_PROGBITS, 0
        DATA
??DataTable245_3:
        DC32     `?<Constant ">cfg_filament_load_speed">`

        SECTION `.text`:CODE:NOROOT(2)
        SECTION_TYPE SHT_PROGBITS, 0
        DATA
??DataTable245_4:
        DC32     `?<Constant ">cfg_filament_unload_...">`

        SECTION `.text`:CODE:NOROOT(2)
        SECTION_TYPE SHT_PROGBITS, 0
        DATA
??DataTable245_5:
        DC32     `?<Constant ">cfg_filament_unload_...">_2`

        SECTION `.text`:CODE:NOROOT(2)
        SECTION_TYPE SHT_PROGBITS, 0
        DATA
??DataTable245_6:
        DC32     `?<Constant ">moreitem_button2_cmd:">`

        SECTION `.text`:CODE:NOROOT(2)
        SECTION_TYPE SHT_PROGBITS, 0
        DATA
??DataTable245_7:
        DC32     `?<Constant ">moreitem_button3_cmd:">`

        SECTION `.text`:CODE:NOROOT(2)
        SECTION_TYPE SHT_PROGBITS, 0
        DATA
??DataTable245_8:
        DC32     `?<Constant ">moreitem_button5_cmd:">`

        SECTION `.text`:CODE:NOROOT(2)
        SECTION_TYPE SHT_PROGBITS, 0
        DATA
??DataTable245_9:
        DC32     `?<Constant ">moreitem_button7_cmd:">`

        SECTION `.text`:CODE:NOROOT(2)
        SECTION_TYPE SHT_PROGBITS, 0
        DATA
??DataTable245_10:
        DC32     `?<Constant ">morefunc4_cmd:">`

        SECTION `.text`:CODE:NOROOT(2)
        SECTION_TYPE SHT_PROGBITS, 0
        DATA
??DataTable245_11:
        DC32     `?<Constant ">cfg_screen_display_mode">`

        SECTION `.text`:CODE:NOROOT(2)
        SECTION_TYPE SHT_PROGBITS, 0
        DATA
`?<Constant "Error writing to EEPROM:">`:
        DC8 "Error writing to EEPROM:"
        DC8 0, 0, 0
//  907 
//  908 

        SECTION `.text`:CODE:NOROOT(1)
          CFI Block cfiBlock20 Using cfiCommon0
          CFI Function epr_read_data
        THUMB
//  909 void epr_read_data(int pos, uint8_t* value, uint16_t size) 
//  910 	{
epr_read_data:
        PUSH     {R4-R6,LR}
          CFI R14 Frame(CFA, -4)
          CFI R6 Frame(CFA, -8)
          CFI R5 Frame(CFA, -12)
          CFI R4 Frame(CFA, -16)
          CFI CFA R13+16
        SUB      SP,SP,#+8
          CFI CFA R13+24
        MOV      R4,R0
        MOV      R5,R1
        MOV      R6,R2
//  911   do {
//  912 	uint8_t c;
//  913 	AT24CXX_Read((uint16_t)pos,&c,1);
??epr_read_data_0:
        MOVS     R2,#+1
        ADD      R1,SP,#+0
        MOV      R0,R4
        UXTH     R0,R0
          CFI FunCall AT24CXX_Read
        BL       AT24CXX_Read
//  914 	*value = c;
        LDRB     R0,[SP, #+0]
        STRB     R0,[R5], #+1
//  915 	pos++;
        ADDS     R4,R4,#+1
//  916 	value++;
//  917   } while (--size);
        SUBS     R6,R6,#+1
        UXTH     R6,R6
        CMP      R6,#+0
        BNE.N    ??epr_read_data_0
//  918 }
        POP      {R0,R1,R4-R6,PC}  ;; return
          CFI EndBlock cfiBlock20
//  919 
//  920 
//  921 //除settings.reset();外，其他默认参数恢复

        SECTION `.text`:CODE:NOROOT(1)
          CFI Block cfiBlock21 Using cfiCommon0
          CFI Function _ZN10CardReader8mksResetEv
        THUMB
//  922 void CardReader::mksReset() 
//  923 {
_ZN10CardReader8mksResetEv:
        PUSH     {R3-R11,LR}
          CFI R14 Frame(CFA, -4)
          CFI R11 Frame(CFA, -8)
          CFI R10 Frame(CFA, -12)
          CFI R9 Frame(CFA, -16)
          CFI R8 Frame(CFA, -20)
          CFI R7 Frame(CFA, -24)
          CFI R6 Frame(CFA, -28)
          CFI R5 Frame(CFA, -32)
          CFI R4 Frame(CFA, -36)
          CFI CFA R13+40
//  924 	  mksCfg.machinetype = Cartesian;
        LDR.N    R4,??DataTable246_2
        ADD      R10,R4,#+744
        MOVS     R0,#+1
        STRH     R0,[R10, #+24]
//  925 
//  926       mksCfg.invert_x_dir = 1;
        STRB     R0,[R4, #+680]
//  927       mksCfg.invert_y_dir = 0;
        ADD      R5,R4,#+680
        MOVS     R0,#+0
        STRB     R0,[R5, #+1]
//  928       mksCfg.invert_z_dir = 1;
        MOVS     R0,#+1
        STRB     R0,[R5, #+2]
//  929       mksCfg.invert_e0_dir = 0;
        MOVS     R0,#+0
        STRB     R0,[R5, #+3]
//  930 	  mksCfg.invert_e1_dir = 0;
        STRB     R0,[R5, #+4]
//  931 /*--mks cfg XYZ_CONSTS_FROM_CONFIG BEGIN--*/	 
//  932 
//  933       mksCfg.x_home_dir = home_dir_P[0] = -1;
        LDR.N    R0,??DataTable246_3
        MOV      R1,#-1
        STRB     R1,[R0, #+0]
        STRB     R1,[R5, #+5]
//  934       mksCfg.y_home_dir = home_dir_P[1] = -1;
        STRB     R1,[R0, #+1]
        STRB     R1,[R5, #+6]
//  935       mksCfg.z_home_dir = home_dir_P[2] = -1;
        STRB     R1,[R0, #+2]
        STRB     R1,[R5, #+7]
//  936 	  
//  937       mksCfg.x_min_pos = base_min_pos_P[0] = soft_endstop_min[0] = 0;
        LDR.N    R0,??DataTable246_4
        MOVS     R1,#+0
        STR      R1,[R0, #+0]
        LDR.W    R1,??DataTable247_1
        MOVS     R2,#+0
        STR      R2,[R1, #+0]
        STR      R2,[R5, #+8]
//  938       mksCfg.y_min_pos = base_min_pos_P[1] = soft_endstop_min[1] = 0;0;
        STR      R2,[R0, #+4]
        STR      R2,[R1, #+4]
        STR      R2,[R5, #+12]
//  939       mksCfg.z_min_pos = base_min_pos_P[2] = soft_endstop_min[2] = 0;0;
        STR      R2,[R0, #+8]
        MOV      R0,R2
        STR      R0,[R1, #+8]
        STR      R0,[R5, #+16]
//  940 
//  941       mksCfg.x_max_pos = base_max_pos_P[0] = soft_endstop_max[0] = 210;
        LDR.W    R0,??DataTable247_2
        LDR.W    R1,??DataTable247_3  ;; 0x43520000
        STR      R1,[R0, #+0]
        LDR.W    R2,??DataTable247_4
        STR      R1,[R2, #+0]
        STR      R1,[R5, #+20]
//  942       mksCfg.y_max_pos = base_max_pos_P[1] = soft_endstop_max[1] = 210;
        STR      R1,[R0, #+4]
        STR      R1,[R2, #+4]
        STR      R1,[R5, #+24]
        LDR.W    R1,??DataTable247_5  ;; 0x43340000
        STR      R1,[R0, #+8]
        MOV      R0,R1
        STR      R0,[R2, #+8]
        STR      R0,[R5, #+28]
//  943       mksCfg.z_max_pos = base_max_pos_P[2] = soft_endstop_max[2] = 180;
//  944 	  
//  945       max_length_P[0] = mksCfg.x_max_pos - mksCfg.x_min_pos;
        LDR.W    R6,??DataTable247_6
        LDR      R0,[R5, #+20]
        MOVS     R1,#+0
          CFI FunCall __aeabi_fsub
        BL       __aeabi_fsub
        STR      R0,[R6, #+0]
//  946       max_length_P[1] = mksCfg.y_max_pos - mksCfg.y_min_pos;
        LDR      R0,[R5, #+24]
        LDR      R1,[R5, #+12]
          CFI FunCall __aeabi_fsub
        BL       __aeabi_fsub
        STR      R0,[R6, #+4]
//  947       max_length_P[2] = mksCfg.z_max_pos - mksCfg.z_min_pos;
        LDR      R0,[R5, #+28]
        LDR      R1,[R5, #+16]
          CFI FunCall __aeabi_fsub
        BL       __aeabi_fsub
        STR      R0,[R6, #+8]
//  948 
//  949 
//  950 //#if ENABLED(DELTA)
//  951 #if 0
//  952       base_home_pos_P[0] = 0; 
//  953       base_home_pos_P[1] = 0; 
//  954 #else
//  955       base_home_pos_P[0] = (mksCfg.x_home_dir < 0 ? mksCfg.x_min_pos : mksCfg.x_max_pos); 
        LDRSB    R0,[R5, #+5]
        CMP      R0,#+0
        BPL.N    ??mksReset_0
        LDR      R0,[R5, #+8]
        B.N      ??mksReset_1
??mksReset_0:
        LDR      R0,[R5, #+20]
??mksReset_1:
        LDR.W    R1,??DataTable247_7
        STR      R0,[R1, #+0]
//  956       base_home_pos_P[1] = (mksCfg.y_home_dir < 0 ? mksCfg.y_min_pos : mksCfg.y_max_pos); 
        LDRSB    R0,[R5, #+6]
        CMP      R0,#+0
        BPL.N    ??mksReset_2
        LDR      R0,[R5, #+12]
        B.N      ??mksReset_3
??mksReset_2:
        LDR      R0,[R5, #+24]
??mksReset_3:
        STR      R0,[R1, #+4]
//  957 #endif
//  958       base_home_pos_P[2] = (mksCfg.z_home_dir < 0 ? mksCfg.z_min_pos : mksCfg.z_max_pos); ; 
        LDRSB    R0,[R5, #+7]
        CMP      R0,#+0
        BPL.N    ??mksReset_4
        LDR      R0,[R5, #+16]
        B.N      ??mksReset_5
??mksReset_4:
        LDR      R0,[R5, #+28]
??mksReset_5:
        STR      R0,[R1, #+8]
//  959 
//  960 
//  961 	  home_bump_mm_P[0] = 5;	//X_HOME_BUMP_MM;
        LDR.W    R0,??DataTable247_8
        LDR.W    R6,??DataTable247_9  ;; 0x40a00000
        STR      R6,[R0, #+0]
//  962 	  home_bump_mm_P[1] = 5;	//Y_HOME_BUMP_MM
        STR      R6,[R0, #+4]
//  963 //#if ENABLED(DELTA)	
//  964 #if 0
//  965 	  home_bump_mm_P[2] = 5;	//Z_HOME_BUMP_MM
//  966 #else
//  967 	  home_bump_mm_P[2] = 2;	//Z_HOME_BUMP_MM
        MOV      R1,#+1073741824
        STR      R1,[R0, #+8]
//  968 #endif
//  969 	  
//  970 	  /*--mks cfg XYZ_CONSTS_FROM_CONFIG END--*/
//  971 	  
//  972       mksCfg.min_software_endstops = 1;
        MOVS     R0,#+1
        STRB     R0,[R4, #+712]
//  973       mksCfg.max_software_endstops = 1;
        ADD      R8,R4,#+712
        STRB     R0,[R8, #+1]
//  974 
//  975       mksCfg.homing_feedrate_xy = 2400;
        LDR.W    R0,??DataTable247_10  ;; 0x45160000
        STR      R0,[R8, #+4]
//  976       mksCfg.homing_feedrate_z = 600;
        LDR.W    R0,??DataTable247_11  ;; 0x44160000
        STR      R0,[R8, #+8]
//  977 
//  978 //#if ENABLED(DELTA)
//  979 #if 0
//  980       homing_feedrate_mm_s[0] = mksCfg.homing_feedrate_z/60;
//  981       homing_feedrate_mm_s[1] = mksCfg.homing_feedrate_z/60;
//  982 #else
//  983       homing_feedrate_mm_s[0] = mksCfg.homing_feedrate_xy/60;
        LDR.W    R7,??DataTable247_12
        LDR.W    R0,??DataTable247_13  ;; 0x42200000
        STR      R0,[R7, #+0]
//  984       homing_feedrate_mm_s[1] = mksCfg.homing_feedrate_xy/60;
        LDR      R0,[R8, #+4]
        LDR.W    R1,??DataTable247_14  ;; 0x42700000
          CFI FunCall __aeabi_fdiv
        BL       __aeabi_fdiv
        STR      R0,[R7, #+4]
//  985 #endif
//  986       homing_feedrate_mm_s[2] = mksCfg.homing_feedrate_z/60;
        LDR      R0,[R8, #+8]
        LDR.W    R1,??DataTable247_14  ;; 0x42700000
          CFI FunCall __aeabi_fdiv
        BL       __aeabi_fdiv
        STR      R0,[R7, #+8]
//  987       homing_feedrate_mm_s[3] = 0;
        MOVS     R0,#+0
        STR      R0,[R7, #+12]
//  988 
//  989 
//  990       mksCfg.extrude_mintemp = 170;
        LDR.W    R7,??DataTable247_15  ;; 0x432a0000
        STR      R7,[R8, #+12]
//  991       mksCfg.bed_maxtemp = 150;
        MOVS     R0,#+150
        STRH     R0,[R8, #+18]
//  992 	  thermalManager.extrude_min_temp = 170;
        MOVS     R0,#+170
        LDR.W    R1,??DataTable247_16
        STRH     R0,[R1, #+0]
//  993 
//  994 	  //robinPlus add
//  995 	  mksCfg.heater_0_mintemp = 5;
        ADD      R0,R4,#+888
        STR      R0,[SP, #+0]
        MOVS     R0,#+5
        LDR      R1,[SP, #+0]
        STRH     R0,[R1, #+32]
//  996       mksCfg.heater_0_maxtemp = 275;
        MOVW     R0,#+275
        STRH     R0,[R8, #+16]
//  997 	  mksCfg.heater_1_mintemp = 5;
        MOVS     R1,#+5
        STRB     R1,[R4, #+922]
//  998       mksCfg.heater_1_maxtemp = 275;
        ADDW     R1,R4,#+922
        STRH     R0,[R1, #+2]
//  999 	  mksCfg.temp_sensor_0 = 1;
        MOVS     R0,#+1
        STRB     R0,[R1, #+4]
// 1000 	  mksCfg.extruders = 1;
        STRB     R0,[R1, #+5]
// 1001 
// 1002 	  
// 1003 #if ENABLED(ULTRA_LCD)          
// 1004 	  heater_maxtemp[0] = 275;
// 1005 #endif
// 1006 	mksCfg.pidtemp = 1;
        STRB     R0,[R8, #+20]
// 1007 	mksCfg.pidtempbed= 0;
        MOVS     R0,#+0
        STRB     R0,[R8, #+21]
// 1008 	mksCfg.has_temp_bed = 1;
        MOVS     R0,#+1
        STRB     R0,[R8, #+22]
// 1009 
// 1010 	mksCfg.x_min_endstop_inverting = 1;
        STRB     R0,[R8, #+23]
// 1011 	mksCfg.y_min_endstop_inverting = 1;
        STRB     R0,[R8, #+24]
// 1012 	mksCfg.z_min_endstop_inverting = 1;
        STRB     R0,[R8, #+25]
// 1013 	mksCfg.x_max_endstop_inverting = 1;
        STRB     R0,[R8, #+26]
// 1014 	mksCfg.y_max_endstop_inverting = 1;
        STRB     R0,[R8, #+27]
// 1015 	mksCfg.z_max_endstop_inverting = 1;
        STRB     R0,[R8, #+28]
// 1016 	mksCfg.z_min_probe_endstop_inverting = 0;
        MOVS     R0,#+0
        STRB     R0,[R8, #+29]
// 1017 	mksCfg.lcd_language = 0;
        STRH     R0,[R8, #+30]
// 1018 
// 1019 #if ENABLED(ULTRA_LCD)
// 1020 	Language_Reset();
// 1021 #endif
// 1022 
// 1023 	mksCfg.home_y_before_x = 0;
// 1024 
// 1025 	mksCfg.grid_max_points_x = 3;
        MOVS     R0,#+3
        STRB     R0,[R4, #+776]
// 1026 	mksCfg.grid_max_points_y = 3;
        ADD      R8,R4,#+776
        STRB     R0,[R8, #+1]
// 1027 
// 1028 	mksCfg.mesh_inst = 10;
        ADD      R9,R4,#+808
        MOVS     R0,#+10
        STRB     R0,[R9, #+24]
// 1029 	
// 1030 	mbl.meshInit();
          CFI FunCall _ZN17mesh_bed_leveling8meshInitEv
        BL       _ZN17mesh_bed_leveling8meshInitEv
// 1031 
// 1032 #if ENABLED(AUTO_BED_LEVELING_UBL)
// 1033 	ubl.state.active = false;
// 1034 	ubl.state.z_offset = 0.0;
// 1035 	ubl.state.eeprom_storage_slot = -1;
// 1036 #endif
// 1037 
// 1038 	mksCfg.bed_leveling_method = NULL_BED_LEVELING;				
        MOVS     R0,#+1
        STRB     R0,[R4, #+744]
// 1039 
// 1040 	mksCfg.delta_smooth_rod_offset = 144;
        LDR.W    R0,??DataTable247_17  ;; 0x43100000
        STR      R0,[R10, #+4]
// 1041 	mksCfg.delta_effector_offset = 25;
        LDR.W    R0,??DataTable247_18  ;; 0x41c80000
        STR      R0,[R10, #+8]
// 1042 	mksCfg.delta_carriage_offset = 17;
        LDR.W    R0,??DataTable247_19  ;; 0x41880000
        STR      R0,[R10, #+12]
// 1043 	mksCfg.delta_height	= 120;
        LDR.W    R0,??DataTable247_20  ;; 0x42f00000
        STR      R0,[R10, #+16]
// 1044 	mksCfg.delta_printable_radius = 127;
        LDR.W    R0,??DataTable247_21  ;; 0x42fe0000
        STR      R0,[R10, #+20]
// 1045 
// 1046 #if defined(MKS_ROBIN_LITE)
// 1047 	TIM3->CCR1 = 500*0.364;
// 1048 	TIM3->CCR2 = 500*0.364;
// 1049 	TIM3->CCR3 = 500*0.364;
// 1050 #endif
// 1051 
// 1052 	mksCfg.z_clearance_deploy_probe = 15;
        LDR.W    R10,??DataTable247_22  ;; 0x41700000
        STR      R10,[R8, #+4]
// 1053 	mksCfg.z_clearance_between_probes = 5;
        STR      R6,[R8, #+8]
// 1054 	
// 1055 	mksCfg.x_probe_offset_from_extruder = 0;
        MOVS     R0,#+0
        STR      R0,[R8, #+12]
// 1056 	mksCfg.y_probe_offset_from_extruder = 0;
        STR      R0,[R8, #+16]
// 1057 
// 1058 	mksCfg.xy_probe_speed = 4000;
        LDR.W    R0,??DataTable247_23  ;; 0x457a0000
        STR      R0,[R8, #+20]
// 1059 	mksCfg.z_probe_speed_fast = 6000;
        LDR.W    R0,??DataTable247_24  ;; 0x45bb8000
        STR      R0,[R8, #+24]
// 1060 	mksCfg.z_probe_speed_slow = 3000;
        LDR.W    R0,??DataTable247_25  ;; 0x453b8000
        STR      R0,[R8, #+28]
// 1061 	
// 1062 	xy_probe_feedrate_mm_s = MMM_TO_MMS(XY_PROBE_SPEED);
        LDR      R0,[R8, #+20]
        LDR.W    R1,??DataTable247_14  ;; 0x42700000
          CFI FunCall __aeabi_fdiv
        BL       __aeabi_fdiv
        LDR.W    R1,??DataTable247_26
        STR      R0,[R1, #+0]
// 1063 
// 1064 	
// 1065 #if ENABLED(ULTRA_LCD)
// 1066 		manual_feedrate_mm_m[0] = 3000;
// 1067 		manual_feedrate_mm_m[1] = 3000;
// 1068 		manual_feedrate_mm_m[2] = 240;
// 1069 		manual_feedrate_mm_m[3] = 60;
// 1070 #endif
// 1071 
// 1072 	mksCfg.use_xmin_plug = 1;
        MOVS     R0,#+1
        STRB     R0,[R4, #+808]
// 1073 	mksCfg.use_ymin_plug = 1;
        STRB     R0,[R9, #+1]
// 1074 	mksCfg.use_zmin_plug = 1;
        STRB     R0,[R9, #+2]
// 1075 	mksCfg.use_xmax_plug = 0;
        MOVS     R0,#+0
        STRB     R0,[R9, #+3]
// 1076 	mksCfg.use_ymax_plug = 0;
        STRH     R0,[R9, #+4]
// 1077 	mksCfg.use_zmax_plug = 0;
// 1078 
// 1079 
// 1080 	mksCfg.left_probe_bed_position = 15;
        STR      R10,[R9, #+8]
// 1081 	mksCfg.right_probe_bed_position = 170;
        STR      R7,[R9, #+12]
// 1082 	mksCfg.front_probe_bed_position = 20;
        LDR.W    R11,??DataTable247_27  ;; 0x41a00000
        STR      R11,[R9, #+16]
// 1083 	mksCfg.back_probe_bed_position = 170;
        STR      R7,[R9, #+20]
        LDR      R1,[R5, #+8]
        LDR      R0,[R8, #+12]
          CFI FunCall __aeabi_fadd
        BL       __aeabi_fadd
        LDR      R1,[R5, #+8]
          CFI FunCall __aeabi_cfcmple
        BL       __aeabi_cfcmple
        BCS.N    ??mksReset_6
        MOV      R0,R1
??mksReset_6:
        LDR.W    R1,??DataTable247_28
        STR      R0,[R1, #+0]
        LDR      R1,[R5, #+20]
        LDR      R0,[R8, #+12]
          CFI FunCall __aeabi_fadd
        BL       __aeabi_fadd
        MOV      R1,R0
        LDR      R0,[R5, #+20]
          CFI FunCall __aeabi_cfcmple
        BL       __aeabi_cfcmple
        BCS.N    ??mksReset_7
        MOV      R1,R0
??mksReset_7:
        LDR.W    R0,??DataTable247_28
        STR      R1,[R0, #+4]
        LDR      R1,[R5, #+12]
        LDR      R0,[R8, #+16]
          CFI FunCall __aeabi_fadd
        BL       __aeabi_fadd
        LDR      R1,[R5, #+12]
          CFI FunCall __aeabi_cfcmple
        BL       __aeabi_cfcmple
        BCS.N    ??mksReset_8
        MOV      R0,R1
??mksReset_8:
        LDR.W    R1,??DataTable247_28
        STR      R0,[R1, #+8]
// 1084 
// 1085 
// 1086 	MIN_PROBE_X = max(X_MIN_POS, X_MIN_POS + X_PROBE_OFFSET_FROM_EXTRUDER);
// 1087 	MAX_PROBE_X = min(X_MAX_POS, X_MAX_POS + X_PROBE_OFFSET_FROM_EXTRUDER);
// 1088 	MIN_PROBE_Y = max(Y_MIN_POS, Y_MIN_POS + Y_PROBE_OFFSET_FROM_EXTRUDER);
// 1089 	MAX_PROBE_Y = min(Y_MAX_POS, Y_MAX_POS + Y_PROBE_OFFSET_FROM_EXTRUDER);
        LDR      R5,[R5, #+24]
        LDR      R0,[R8, #+16]
        MOV      R1,R5
          CFI FunCall __aeabi_fadd
        BL       __aeabi_fadd
        MOV      R1,R0
        MOV      R0,R5
          CFI FunCall __aeabi_cfcmple
        BL       __aeabi_cfcmple
        BCC.N    ??mksReset_9
        MOV      R5,R1
??mksReset_9:
        LDR.W    R0,??DataTable247_28
        STR      R5,[R0, #+12]
// 1090 #if ENABLED(ULTRA_LCD)
// 1091 	total_probe_points  = 1;
// 1092 #endif
// 1093 
// 1094 	mksCfg.z_min_probe_pin_mode = 0;
        MOVS     R0,#+0
        STRB     R0,[R9, #+25]
// 1095 
// 1096 	mksCfg.abl_probe_pt1_x = 15;
        STR      R10,[R9, #+28]
// 1097 	mksCfg.abl_probe_pt1_y = 180;
        LDR.W    R0,??DataTable247_5  ;; 0x43340000
        STR      R0,[R9, #+32]
// 1098 	mksCfg.abl_probe_pt2_x = 15;
        STR      R10,[R9, #+36]
// 1099 	mksCfg.abl_probe_pt2_y = 20;
        STR      R11,[R9, #+40]
// 1100 	mksCfg.abl_probe_pt3_x = 170;
        STR      R7,[R9, #+44]
// 1101 	mksCfg.abl_probe_pt3_y = 20;
        STR      R11,[R9, #+48]
// 1102 	
// 1103 	planner.init();
        LDR.W    R0,??DataTable247_29
          CFI FunCall _ZN7Planner4initEv
        BL       _ZN7Planner4initEv
// 1104 
// 1105 	mksCfg.ubl_mesh_inset = 20;
        MOVS     R0,#+20
        STRH     R0,[R9, #+52]
// 1106 	mksCfg.ubl_probe_pt_1_x = 15;
        STR      R10,[R9, #+56]
// 1107 	mksCfg.ubl_probe_pt_1_y = 180;
        LDR.W    R0,??DataTable247_5  ;; 0x43340000
        STR      R0,[R9, #+60]
// 1108 	mksCfg.ubl_probe_pt_2_x = 15;
        STR      R10,[R9, #+64]
// 1109 	mksCfg.ubl_probe_pt_2_y = 20;
        STR      R11,[R9, #+68]
// 1110 	mksCfg.ubl_probe_pt_3_x = 170;
        STR      R7,[R9, #+72]
// 1111 	mksCfg.ubl_probe_pt_3_y = 20;
        STR      R11,[R9, #+76]
// 1112 
// 1113 	ubl.mesh_index_to_xypos_init();
          CFI FunCall _ZN20unified_bed_leveling24mesh_index_to_xypos_initEv
        BL       _ZN20unified_bed_leveling24mesh_index_to_xypos_initEv
// 1114 
// 1115 	mksCfg.fil_runout_inverting = 0;
        MOVS     R0,#+0
        STRB     R0,[R4, #+888]
// 1116 
// 1117 	mksCfg.filament_change_x_pos = 5;
        LDR      R0,[SP, #+0]
        STR      R6,[R0, #+4]
// 1118 	mksCfg.filament_change_y_pos = 5;
        LDR      R0,[SP, #+0]
        STR      R6,[R0, #+8]
// 1119 	mksCfg.filament_change_z_add = 5;
        LDR      R0,[SP, #+0]
        STR      R6,[R0, #+12]
// 1120 
// 1121 	mksReprint.mks_zero_x=50;
        LDR.W    R0,??DataTable247_30
        LDR.W    R1,??DataTable247_31  ;; 0x42480000
        STR      R1,[R0, #+172]
// 1122 	mksReprint.mks_zero_y=50;
        STR      R1,[R0, #+176]
// 1123 
// 1124 
// 1125 	mksCfg.thermal_protection_period = 40;
        MOVS     R0,#+40
        LDR      R1,[SP, #+0]
        STRH     R0,[R1, #+16]
// 1126 	mksCfg.thermal_protection_hysteresis = 4;
        MOVS     R0,#+4
        LDR      R1,[SP, #+0]
        STRB     R0,[R1, #+18]
// 1127 	mksCfg.watch_temp_period = 20;
        MOVS     R0,#+20
        LDR      R1,[SP, #+0]
        STRH     R0,[R1, #+20]
// 1128 	mksCfg.watch_temp_increase = 2;
        MOVS     R0,#+2
        LDR      R1,[SP, #+0]
        STRB     R0,[R1, #+22]
// 1129 
// 1130 	mksCfg.thermal_protection_bed_period = 20;
        MOVS     R0,#+20
        LDR      R1,[SP, #+0]
        STRH     R0,[R1, #+24]
// 1131 	mksCfg.thermal_protection_bed_hysteresis = 2;
        MOVS     R0,#+2
        LDR      R1,[SP, #+0]
        STRB     R0,[R1, #+26]
// 1132 	mksCfg.watch_bed_temp_period = 60;
        MOVS     R0,#+60
        LDR      R1,[SP, #+0]
        STRH     R0,[R1, #+28]
// 1133 	mksCfg.watch_bed_temp_increase = 2;
        MOVS     R0,#+2
        LDR      R1,[SP, #+0]
        STRB     R0,[R1, #+30]
// 1134 
// 1135 
// 1136 	mksTmp.cfg_hardware_test_enable = 0;
        MOVS     R0,#+0
        LDR.W    R1,??DataTable247_28
        STRB     R0,[R1, #+19]
// 1137 
// 1138 	
// 1139 	
// 1140 	mksCfg.hotnd_offset_x = 20.0;
        STR      R11,[R4, #+928]
// 1141 	mksCfg.hotnd_offset_y = 5.0;
        ADD      R0,R4,#+928
        STR      R6,[R0, #+4]
// 1142 
// 1143 	mksCfg.mkstouch = 0;
        MOVS     R1,#+0
        STRH     R1,[R0, #+8]
// 1144 
// 1145     mksCfg.z2_enable=0;
// 1146     mksCfg.z2_endstops_enable=0;
        STRB     R1,[R0, #+10]
// 1147     mksCfg.z2_endstop=1;
        MOVS     R1,#+1
        STRB     R1,[R0, #+11]
// 1148 
// 1149     mksCfg.x_enable_on=0;
        MOVS     R1,#+0
        STR      R1,[R0, #+12]
// 1150     mksCfg.y_enable_on=0;
// 1151     mksCfg.z_enable_on=0;
// 1152     mksCfg.e_enable_on=0;
// 1153 	//mkstft_ui_init();
// 1154 
// 1155 }
        POP      {R0,R4-R11,PC}   ;; return
          CFI EndBlock cfiBlock21

        SECTION `.text`:CODE:NOROOT(2)
        SECTION_TYPE SHT_PROGBITS, 0
        DATA
??DataTable246:
        DC32     echomagic

        SECTION `.text`:CODE:NOROOT(2)
        SECTION_TYPE SHT_PROGBITS, 0
        DATA
??DataTable246_1:
        DC32     dst_buf

        SECTION `.text`:CODE:NOROOT(2)
        SECTION_TYPE SHT_PROGBITS, 0
        DATA
??DataTable246_2:
        DC32     gCfgItems

        SECTION `.text`:CODE:NOROOT(2)
        SECTION_TYPE SHT_PROGBITS, 0
        DATA
??DataTable246_3:
        DC32     home_dir_P

        SECTION `.text`:CODE:NOROOT(2)
        SECTION_TYPE SHT_PROGBITS, 0
        DATA
??DataTable246_4:
        DC32     soft_endstop_min
// 1156 

        SECTION `.text`:CODE:NOROOT(1)
          CFI Block cfiBlock22 Using cfiCommon0
          CFI Function _ZN10CardReader7mksLoadEv
        THUMB
// 1157 void CardReader::mksLoad() 
// 1158 {
_ZN10CardReader7mksLoadEv:
        PUSH     {R4-R10,LR}
          CFI R14 Frame(CFA, -4)
          CFI R10 Frame(CFA, -8)
          CFI R9 Frame(CFA, -12)
          CFI R8 Frame(CFA, -16)
          CFI R7 Frame(CFA, -20)
          CFI R6 Frame(CFA, -24)
          CFI R5 Frame(CFA, -28)
          CFI R4 Frame(CFA, -32)
          CFI CFA R13+32
        SUB      SP,SP,#+8
          CFI CFA R13+40
// 1159     uint8_t cfg_data;
// 1160 
// 1161 	epr_read_data((int)EPR_MACHINETPYE, (uint8_t*)&mksCfg.machinetype, sizeof(mksCfg.machinetype));
        LDR.W    R5,??DataTable247_32
        MOVS     R2,#+2
        ADD      R1,R5,#+768
        MOVW     R0,#+1537
          CFI FunCall epr_read_data
        BL       epr_read_data
// 1162 	if(mksCfg.machinetype < 0 ||  mksCfg.machinetype > 9)	mksCfg.machinetype = 0;
        ADD      R6,R5,#+760
        LDRSH    R0,[R6, #+8]
        CMP      R0,#+10
        BCC.N    ??mksLoad_0
        MOVS     R0,#+0
        STRH     R0,[R6, #+8]
// 1163 	mksCfg.machinetype = (1<<mksCfg.machinetype);
??mksLoad_0:
        MOVS     R4,#+1
        LDRH     R0,[R6, #+8]
        LSL      R0,R4,R0
        STRH     R0,[R6, #+8]
// 1164 
// 1165 	AT24CXX_Read((uint16_t)EPR_BED_LEVELING_METHOD,&mksCfg.bed_leveling_method,1);
        MOV      R2,R4
        ADD      R1,R5,#+744
        MOVW     R0,#+1516
          CFI FunCall AT24CXX_Read
        BL       AT24CXX_Read
// 1166 	if(mksCfg.bed_leveling_method > 5)	mksCfg.bed_leveling_method = 0;
        ADDW     R7,R5,#+737
        LDRB     R0,[R7, #+7]
        CMP      R0,#+6
        BLT.N    ??mksLoad_1
        MOVS     R0,#+0
        STRB     R0,[R7, #+7]
// 1167 	  mksCfg.bed_leveling_method = (1<<mksCfg.bed_leveling_method);
??mksLoad_1:
        LDRSB    R0,[R7, #+7]
        LSL      R0,R4,R0
        STRB     R0,[R7, #+7]
// 1168 
// 1169 	if(MACHINETPYE == DELTA)	//MESH_BED_LEVELING does not yet support DELTA printers.
        LDRSH    R0,[R6, #+8]
        CMP      R0,#+2
        BNE.N    ??mksLoad_2
        LDRB     R0,[R7, #+7]
        CMP      R0,#+2
        BLT.N    ??mksLoad_2
        CMP      R0,#+8
        BEQ.N    ??mksLoad_2
// 1170 		{
// 1171 		if(mksCfg.bed_leveling_method > NULL_BED_LEVELING && mksCfg.bed_leveling_method != AUTO_BED_LEVELING_BILINEAR)
// 1172 			mksCfg.bed_leveling_method = AUTO_BED_LEVELING_BILINEAR;
        MOVS     R0,#+8
        STRB     R0,[R7, #+7]
// 1173 		}
// 1174 
// 1175 
// 1176     AT24CXX_Read((uint16_t)EPR_INVERT_X_DIR,&mksCfg.invert_x_dir,1);
??mksLoad_2:
        MOV      R2,R4
        ADD      R1,R5,#+680
        MOVW     R0,#+1454
          CFI FunCall AT24CXX_Read
        BL       AT24CXX_Read
// 1177     AT24CXX_Read((uint16_t)EPR_INVERT_Y_DIR,&mksCfg.invert_y_dir,1);
        MOV      R2,R4
        ADDW     R1,R5,#+681
        MOVW     R0,#+1455
          CFI FunCall AT24CXX_Read
        BL       AT24CXX_Read
// 1178     AT24CXX_Read((uint16_t)EPR_INVERT_Z_DIR,&mksCfg.invert_z_dir,1);
        MOV      R2,R4
        ADDW     R1,R5,#+682
        MOV      R0,#+1456
          CFI FunCall AT24CXX_Read
        BL       AT24CXX_Read
// 1179     AT24CXX_Read((uint16_t)EPR_INVERT_E0_DIR,&mksCfg.invert_e0_dir,1);
        MOV      R2,R4
        ADDW     R1,R5,#+683
        MOVW     R0,#+1457
          CFI FunCall AT24CXX_Read
        BL       AT24CXX_Read
// 1180 	AT24CXX_Read((uint16_t)EPR_INVERT_E1_DIR,&mksCfg.invert_e1_dir,1);
        MOV      R2,R4
        ADD      R1,R5,#+684
        MOVW     R0,#+1458
          CFI FunCall AT24CXX_Read
        BL       AT24CXX_Read
// 1181 /*--mks cfg XYZ_CONSTS_FROM_CONFIG BEGIN--*/
// 1182     AT24CXX_Read((uint16_t)EPR_X_HOME_DIR,&cfg_data,1); home_dir_P[0] = mksCfg.x_home_dir = (int)cfg_data;
        MOV      R2,R4
        ADD      R1,SP,#+0
        MOVW     R0,#+1459
          CFI FunCall AT24CXX_Read
        BL       AT24CXX_Read
        LDRSB    R0,[SP, #+0]
        STRB     R0,[R5, #+685]
        LDR.W    R4,??DataTable247_33
        LDRB     R0,[R5, #+685]
        STRB     R0,[R4, #+0]
// 1183     AT24CXX_Read((uint16_t)EPR_Y_HOME_DIR,&cfg_data,1); home_dir_P[1] = mksCfg.y_home_dir = (int)cfg_data;
        MOVS     R2,#+1
        ADD      R1,SP,#+0
        MOVW     R0,#+1460
          CFI FunCall AT24CXX_Read
        BL       AT24CXX_Read
        ADDW     R8,R5,#+685
        LDRSB    R0,[SP, #+0]
        STRB     R0,[R8, #+1]
        LDRB     R0,[R8, #+1]
        STRB     R0,[R4, #+1]
// 1184     AT24CXX_Read((uint16_t)EPR_Z_HOME_DIR,&cfg_data,1); home_dir_P[2] = mksCfg.z_home_dir = (int)cfg_data;
        MOVS     R2,#+1
        ADD      R1,SP,#+0
        MOVW     R0,#+1461
          CFI FunCall AT24CXX_Read
        BL       AT24CXX_Read
        LDRSB    R0,[SP, #+0]
        STRB     R0,[R8, #+2]
        LDRB     R0,[R8, #+2]
        STRB     R0,[R4, #+2]
// 1185 
// 1186     epr_read_data((int)EPR_X_MIN_POS, (uint8_t*)&mksCfg.x_min_pos, sizeof(mksCfg.x_min_pos)); base_min_pos_P[0] = soft_endstop_min[0] = mksCfg.x_min_pos;
        ADD      R4,R5,#+688
        MOVS     R2,#+4
        MOV      R1,R4
        MOVW     R0,#+1462
          CFI FunCall epr_read_data
        BL       epr_read_data
        LDR      R0,[R5, #+688]
        LDR.W    R9,??DataTable247_34
        STR      R0,[R9, #+0]
        LDR.W    R10,??DataTable247_1
        STR      R0,[R10, #+0]
// 1187     epr_read_data((int)EPR_Y_MIN_POS, (uint8_t*)&mksCfg.y_min_pos, sizeof(mksCfg.y_min_pos)); base_min_pos_P[1] = soft_endstop_min[1] = mksCfg.y_min_pos;
        MOVS     R2,#+4
        ADD      R1,R5,#+692
        MOVW     R0,#+1466
          CFI FunCall epr_read_data
        BL       epr_read_data
        LDR      R0,[R4, #+4]
        STR      R0,[R9, #+4]
        STR      R0,[R10, #+4]
// 1188     epr_read_data((int)EPR_Z_MIN_POS, (uint8_t*)&mksCfg.z_min_pos, sizeof(mksCfg.z_min_pos)); base_min_pos_P[2] = soft_endstop_min[2] = mksCfg.z_min_pos;
        MOVS     R2,#+4
        ADD      R1,R5,#+696
        MOVW     R0,#+1470
          CFI FunCall epr_read_data
        BL       epr_read_data
        LDR      R0,[R4, #+8]
        STR      R0,[R9, #+8]
        STR      R0,[R10, #+8]
// 1189 
// 1190     epr_read_data((int)EPR_X_MAX_POS, (uint8_t*)&mksCfg.x_max_pos, sizeof(mksCfg.x_max_pos)); base_max_pos_P[0] = soft_endstop_max[0] = mksCfg.x_max_pos;
        MOVS     R2,#+4
        ADD      R1,R5,#+700
        MOVW     R0,#+1474
          CFI FunCall epr_read_data
        BL       epr_read_data
        LDR      R0,[R4, #+12]
        LDR.W    R9,??DataTable247_2
        STR      R0,[R9, #+0]
        LDR.W    R10,??DataTable247_4
        STR      R0,[R10, #+0]
// 1191     epr_read_data((int)EPR_Y_MAX_POS, (uint8_t*)&mksCfg.y_max_pos, sizeof(mksCfg.y_max_pos)); base_max_pos_P[1] = soft_endstop_max[1] = mksCfg.y_max_pos;
        MOVS     R2,#+4
        ADD      R1,R5,#+704
        MOVW     R0,#+1478
          CFI FunCall epr_read_data
        BL       epr_read_data
        LDR      R0,[R4, #+16]
        STR      R0,[R9, #+4]
        STR      R0,[R10, #+4]
// 1192     epr_read_data((int)EPR_Z_MAX_POS, (uint8_t*)&mksCfg.z_max_pos, sizeof(mksCfg.z_max_pos)); base_max_pos_P[2] = soft_endstop_max[2] = mksCfg.z_max_pos;
        MOVS     R2,#+4
        ADD      R1,R5,#+708
        MOVW     R0,#+1482
          CFI FunCall epr_read_data
        BL       epr_read_data
        LDR      R0,[R4, #+20]
        STR      R0,[R9, #+8]
        STR      R0,[R10, #+8]
// 1193 
// 1194     max_length_P[0] = mksCfg.x_max_pos - mksCfg.x_min_pos;
        LDR.W    R9,??DataTable247_6
        LDR      R0,[R4, #+12]
        LDR      R1,[R5, #+688]
          CFI FunCall __aeabi_fsub
        BL       __aeabi_fsub
        STR      R0,[R9, #+0]
// 1195     max_length_P[1] = mksCfg.y_max_pos - mksCfg.y_min_pos;
        LDR      R0,[R4, #+16]
        LDR      R1,[R4, #+4]
          CFI FunCall __aeabi_fsub
        BL       __aeabi_fsub
        STR      R0,[R9, #+4]
// 1196     max_length_P[2] = mksCfg.z_max_pos - mksCfg.z_min_pos;
        LDR      R0,[R4, #+20]
        LDR      R1,[R4, #+8]
          CFI FunCall __aeabi_fsub
        BL       __aeabi_fsub
        STR      R0,[R9, #+8]
// 1197 
// 1198     //epr_read_data((int)EPR_X_HOME_BUMP_MM, (uint8_t*)&mksCfg.x_home_bump_mm, sizeof(mksCfg.x_home_bump_mm));
// 1199     //epr_read_data((int)EPR_Y_HOME_BUMP_MM, (uint8_t*)&mksCfg.y_home_bump_mm, sizeof(mksCfg.y_home_bump_mm));
// 1200     //epr_read_data((int)EPR_Z_HOME_BUMP_MM, (uint8_t*)&mksCfg.z_home_bump_mm, sizeof(mksCfg.z_home_bump_mm));
// 1201 
// 1202 	if(MACHINETPYE == DELTA)
        LDRSH    R0,[R6, #+8]
        CMP      R0,#+2
        BNE.N    ??mksLoad_3
// 1203 	{
// 1204     	base_home_pos_P[0] = 0; 
        LDR.W    R0,??DataTable247_7
        MOVS     R1,#+0
        STR      R1,[R0, #+0]
// 1205 	    base_home_pos_P[1] = 0; 
        STR      R1,[R0, #+4]
// 1206     	base_home_pos_P[2] = (mksCfg.z_home_dir < 0 ? mksCfg.z_min_pos : mksCfg.z_max_pos); ; 
        LDRSB    R1,[R8, #+2]
        CMP      R1,#+0
        BPL.N    ??mksLoad_4
        LDR      R1,[R4, #+8]
        B.N      ??mksLoad_5
??mksLoad_4:
        LDR      R1,[R4, #+20]
??mksLoad_5:
        STR      R1,[R0, #+8]
// 1207 		home_bump_mm_P[2] = 5;
        LDR.W    R0,??DataTable247_9  ;; 0x40a00000
        LDR.W    R1,??DataTable247_8
        STR      R0,[R1, #+8]
        B.N      ??mksLoad_6
// 1208 	}
// 1209 	else
// 1210 	{
// 1211 	    base_home_pos_P[0] = (mksCfg.x_home_dir < 0 ? mksCfg.x_min_pos : mksCfg.x_max_pos); 
??mksLoad_3:
        LDRSB    R0,[R5, #+685]
        CMP      R0,#+0
        BPL.N    ??mksLoad_7
        LDR      R1,[R5, #+688]
        B.N      ??mksLoad_8
??mksLoad_7:
        LDR      R1,[R4, #+12]
??mksLoad_8:
        LDR.W    R0,??DataTable247_7
        STR      R1,[R0, #+0]
// 1212     	base_home_pos_P[1] = (mksCfg.y_home_dir < 0 ? mksCfg.y_min_pos : mksCfg.y_max_pos); 
        LDRSB    R1,[R8, #+1]
        CMP      R1,#+0
        BPL.N    ??mksLoad_9
        LDR      R1,[R4, #+4]
        B.N      ??mksLoad_10
??mksLoad_9:
        LDR      R1,[R4, #+16]
??mksLoad_10:
        STR      R1,[R0, #+4]
// 1213 	    base_home_pos_P[2] = (mksCfg.z_home_dir < 0 ? mksCfg.z_min_pos : mksCfg.z_max_pos); ; 
        LDRSB    R1,[R8, #+2]
        CMP      R1,#+0
        BPL.N    ??mksLoad_11
        LDR      R1,[R4, #+8]
        B.N      ??mksLoad_12
??mksLoad_11:
        LDR      R1,[R4, #+20]
??mksLoad_12:
        STR      R1,[R0, #+8]
// 1214 		home_bump_mm_P[2] = 2;//mksCfg.z_home_bump_mm;//
        MOV      R0,#+1073741824
        LDR.W    R1,??DataTable247_8
        STR      R0,[R1, #+8]
// 1215 	}
// 1216     home_bump_mm_P[0] = 5;//mksCfg.x_home_bump_mm;//
??mksLoad_6:
        MOV      R0,R1
        LDR.W    R1,??DataTable247_9  ;; 0x40a00000
        STR      R1,[R0, #+0]
// 1217     home_bump_mm_P[1] = 5;//mksCfg.y_home_bump_mm;//
        STR      R1,[R0, #+4]
// 1218 
// 1219 /*--mks cfg XYZ_CONSTS_FROM_CONFIG END--*/
// 1220     AT24CXX_Read((uint16_t)EPR_MIN_SOFTWARE_ENDSTOPS,&mksCfg.min_software_endstops,1);
        MOVS     R2,#+1
        ADD      R1,R5,#+712
        MOVW     R0,#+1486
          CFI FunCall AT24CXX_Read
        BL       AT24CXX_Read
// 1221     AT24CXX_Read((uint16_t)EPR_MAX_SOFTWARE_ENDSTOPS,&mksCfg.max_software_endstops,1);
        MOVS     R2,#+1
        ADDW     R1,R5,#+713
        MOVW     R0,#+1487
          CFI FunCall AT24CXX_Read
        BL       AT24CXX_Read
// 1222 
// 1223     epr_read_data((int)EPR_HOMING_FEEDRATE_XY, (uint8_t*)&mksCfg.homing_feedrate_xy, sizeof(mksCfg.homing_feedrate_xy));
        MOVS     R2,#+4
        ADD      R1,R5,#+716
        MOV      R0,#+1488
          CFI FunCall epr_read_data
        BL       epr_read_data
// 1224     epr_read_data((int)EPR_HOMING_FEEDRATE_Z, (uint8_t*)&mksCfg.homing_feedrate_z, sizeof(mksCfg.homing_feedrate_z));
        MOVS     R2,#+4
        ADD      R1,R5,#+720
        MOVW     R0,#+1492
          CFI FunCall epr_read_data
        BL       epr_read_data
// 1225 
// 1226 
// 1227 
// 1228 	if(MACHINETPYE == DELTA)
        LDR.W    R8,??DataTable247_12
        LDRSH    R0,[R6, #+8]
        CMP      R0,#+2
        BNE.N    ??mksLoad_13
// 1229 	{
// 1230 	    homing_feedrate_mm_s[0] = mksCfg.homing_feedrate_z/60;
        LDR      R0,[R4, #+32]
        LDR.W    R1,??DataTable247_14  ;; 0x42700000
          CFI FunCall __aeabi_fdiv
        BL       __aeabi_fdiv
        STR      R0,[R8, #+0]
// 1231     	homing_feedrate_mm_s[1] = mksCfg.homing_feedrate_z/60;
        LDR      R0,[R4, #+32]
        LDR.W    R1,??DataTable247_14  ;; 0x42700000
          CFI FunCall __aeabi_fdiv
        BL       __aeabi_fdiv
        STR      R0,[R8, #+4]
        B.N      ??mksLoad_14
// 1232 	}
// 1233 	else
// 1234 	{
// 1235     	homing_feedrate_mm_s[0] = mksCfg.homing_feedrate_xy/60;
??mksLoad_13:
        LDR      R0,[R4, #+28]
        LDR.W    R1,??DataTable247_14  ;; 0x42700000
          CFI FunCall __aeabi_fdiv
        BL       __aeabi_fdiv
        STR      R0,[R8, #+0]
// 1236     	homing_feedrate_mm_s[1] = mksCfg.homing_feedrate_xy/60;
        LDR      R0,[R4, #+28]
        LDR.W    R1,??DataTable247_14  ;; 0x42700000
          CFI FunCall __aeabi_fdiv
        BL       __aeabi_fdiv
        STR      R0,[R8, #+4]
// 1237 	}
// 1238     homing_feedrate_mm_s[2] = mksCfg.homing_feedrate_z/60;
??mksLoad_14:
        LDR      R0,[R4, #+32]
        LDR.W    R1,??DataTable247_14  ;; 0x42700000
          CFI FunCall __aeabi_fdiv
        BL       __aeabi_fdiv
        STR      R0,[R8, #+8]
// 1239     homing_feedrate_mm_s[3] = 0;
        MOVS     R0,#+0
        STR      R0,[R8, #+12]
// 1240 
// 1241 	//robinPlus add
// 1242     epr_read_data((int)EPR_HEATER_0_MINTEMP, (uint8_t*)&mksCfg.heater_0_mintemp, sizeof(mksCfg.extrude_mintemp)); 
        MOVS     R2,#+4
        ADD      R1,R5,#+920
        MOVW     R0,#+1674
          CFI FunCall epr_read_data
        BL       epr_read_data
// 1243 	AT24CXX_Read((uint16_t)EPR_HEATER_1_MINTEMP,&cfg_data,1);  mksCfg.heater_1_mintemp = (int)cfg_data;	
        MOVS     R2,#+1
        ADD      R1,SP,#+0
        MOVW     R0,#+1676
          CFI FunCall AT24CXX_Read
        BL       AT24CXX_Read
        LDRSB    R0,[SP, #+0]
        STRB     R0,[R5, #+922]
// 1244     epr_read_data((int)EPR_HEATER_1_MAXTEMP, (uint8_t*)&mksCfg.heater_1_maxtemp, sizeof(mksCfg.extrude_mintemp)); 
        MOVS     R2,#+4
        ADD      R1,R5,#+924
        MOVW     R0,#+1677
          CFI FunCall epr_read_data
        BL       epr_read_data
// 1245 	AT24CXX_Read((uint16_t)EPR_TEMP_SENSOR_0,&cfg_data,1);  mksCfg.temp_sensor_0 = (int)cfg_data;	
        MOVS     R2,#+1
        ADD      R1,SP,#+0
        MOVW     R0,#+1679
          CFI FunCall AT24CXX_Read
        BL       AT24CXX_Read
        ADDW     R8,R5,#+922
        LDRSB    R0,[SP, #+0]
        STRB     R0,[R8, #+4]
// 1246 	AT24CXX_Read((uint16_t)EPR_EXTRUDERS,&mksCfg.extruders,1);
        MOVS     R2,#+1
        ADDW     R1,R5,#+927
        MOV      R0,#+1680
          CFI FunCall AT24CXX_Read
        BL       AT24CXX_Read
// 1247     epr_read_data((int)EPR_EXTRUDE_MINTEMP, (uint8_t*)&mksCfg.extrude_mintemp, sizeof(mksCfg.extrude_mintemp)); thermalManager.extrude_min_temp = mksCfg.extrude_mintemp;
        MOVS     R2,#+4
        ADD      R1,R5,#+724
        MOV      R0,#+1496
          CFI FunCall epr_read_data
        BL       epr_read_data
        LDR      R0,[R4, #+36]
          CFI FunCall __aeabi_f2iz
        BL       __aeabi_f2iz
        LDR.W    R1,??DataTable247_16
        STRH     R0,[R1, #+0]
// 1248     epr_read_data((int)EPR_HEATER_0_MAXTEMP, (uint8_t*)&mksCfg.heater_0_maxtemp, sizeof(mksCfg.heater_0_maxtemp)); 
        MOVS     R2,#+2
        ADD      R1,R5,#+728
        MOVW     R0,#+1500
          CFI FunCall epr_read_data
        BL       epr_read_data
// 1249 #if ENABLED(ULTRA_LCD)
// 1250     heater_maxtemp[0] = mksCfg.heater_0_maxtemp;
// 1251 	heater_maxtemp[1] = mksCfg.heater_1_maxtemp;
// 1252     heater_mintemp[0] = mksCfg.heater_0_mintemp;
// 1253 	heater_mintemp[1] = mksCfg.heater_1_mintemp;
// 1254 #endif    
// 1255     epr_read_data((int)EPR_BED_MAXTEMP, (uint8_t*)&mksCfg.bed_maxtemp, sizeof(mksCfg.bed_maxtemp));
        MOVS     R2,#+2
        ADDW     R1,R5,#+730
        MOVW     R0,#+1502
          CFI FunCall epr_read_data
        BL       epr_read_data
// 1256 	
// 1257 	
// 1258     AT24CXX_Read((uint16_t)EPR_PIDTEMP,&mksCfg.pidtemp,1);
        MOVS     R2,#+1
        ADD      R1,R5,#+732
        MOV      R0,#+1504
          CFI FunCall AT24CXX_Read
        BL       AT24CXX_Read
// 1259     AT24CXX_Read((uint16_t)EPR_PIDTEMPBED,&mksCfg.pidtempbed,1);
        MOVS     R2,#+1
        ADDW     R1,R5,#+733
        MOVW     R0,#+1505
          CFI FunCall AT24CXX_Read
        BL       AT24CXX_Read
// 1260     AT24CXX_Read((uint16_t)EPR_HAS_TEMP_BED,&mksCfg.has_temp_bed,1);
        MOVS     R2,#+1
        ADDW     R1,R5,#+734
        MOVW     R0,#+1506
          CFI FunCall AT24CXX_Read
        BL       AT24CXX_Read
// 1261 
// 1262 #if ENABLED(ULTRA_LCD)
// 1263 	if(!mksCfg.has_temp_bed)	/*--mks cfg-- HAS_TEMP_BED --*/
// 1264 		{
// 1265 		status_screen0_bmp[114] = status_screen0_bmp[115] = 0;
// 1266 		status_screen0_bmp[129] = status_screen0_bmp[130] = 0;
// 1267 		status_screen0_bmp[144] = status_screen0_bmp[145] = 0;
// 1268 		status_screen0_bmp[159] = status_screen0_bmp[160] = 0;
// 1269 		status_screen0_bmp[174] = status_screen0_bmp[175] = 0;
// 1270 		status_screen0_bmp[188] = status_screen0_bmp[189] = status_screen0_bmp[190] = 0;
// 1271 		status_screen0_bmp[203] = status_screen0_bmp[204] = status_screen0_bmp[205] = 0;
// 1272 		status_screen0_bmp[219] = status_screen0_bmp[220] = 0;
// 1273 		status_screen0_bmp[234] = status_screen0_bmp[235] = 0;
// 1274 		status_screen0_bmp[263] = status_screen0_bmp[264] = status_screen0_bmp[265] = status_screen0_bmp[266]= 0;
// 1275 		status_screen0_bmp[278] = status_screen0_bmp[279] = status_screen0_bmp[280] = status_screen0_bmp[281]= 0;
// 1276 		
// 1277 		status_screen1_bmp[114] = status_screen1_bmp[115] = 0;
// 1278 		status_screen1_bmp[129] = status_screen1_bmp[130] = 0;
// 1279 		status_screen1_bmp[144] = status_screen1_bmp[145] = 0;
// 1280 		status_screen1_bmp[159] = status_screen1_bmp[160] = 0;
// 1281 		status_screen1_bmp[174] = status_screen1_bmp[175] = 0;
// 1282 		status_screen1_bmp[188] = status_screen1_bmp[189] = status_screen1_bmp[190] = 0;
// 1283 		status_screen1_bmp[203] = status_screen1_bmp[204] = status_screen1_bmp[205] = 0;
// 1284 		status_screen1_bmp[219] = status_screen1_bmp[220] = 0;
// 1285 		status_screen1_bmp[234] = status_screen1_bmp[235] = 0;
// 1286 		status_screen1_bmp[263] = status_screen1_bmp[264] = status_screen1_bmp[265] = status_screen1_bmp[266] =0;
// 1287 		status_screen1_bmp[278] = status_screen1_bmp[279] = status_screen1_bmp[280] = status_screen1_bmp[281] =0;
// 1288 		
// 1289 		}
// 1290 #endif
// 1291         
// 1292     AT24CXX_Read((uint16_t)EPR_X_MIN_ENDSTOP_INVERTING,&mksCfg.x_min_endstop_inverting,1);
        MOVS     R2,#+1
        ADDW     R1,R5,#+735
        MOVW     R0,#+1507
          CFI FunCall AT24CXX_Read
        BL       AT24CXX_Read
// 1293     AT24CXX_Read((uint16_t)EPR_Y_MIN_ENDSTOP_INVERTING,&mksCfg.y_min_endstop_inverting,1);
        MOVS     R2,#+1
        ADD      R1,R5,#+736
        MOVW     R0,#+1508
          CFI FunCall AT24CXX_Read
        BL       AT24CXX_Read
// 1294     AT24CXX_Read((uint16_t)EPR_Z_MIN_ENDSTOP_INVERTING,&mksCfg.z_min_endstop_inverting,1);
        MOVS     R2,#+1
        ADDW     R1,R5,#+737
        MOVW     R0,#+1509
          CFI FunCall AT24CXX_Read
        BL       AT24CXX_Read
// 1295     AT24CXX_Read((uint16_t)EPR_X_MAX_ENDSTOP_INVERTING,&mksCfg.x_max_endstop_inverting,1);
        MOVS     R2,#+1
        ADDW     R1,R5,#+738
        MOVW     R0,#+1510
          CFI FunCall AT24CXX_Read
        BL       AT24CXX_Read
// 1296     AT24CXX_Read((uint16_t)EPR_Y_MAX_ENDSTOP_INVERTING,&mksCfg.y_max_endstop_inverting,1);
        MOVS     R2,#+1
        ADDW     R1,R5,#+739
        MOVW     R0,#+1511
          CFI FunCall AT24CXX_Read
        BL       AT24CXX_Read
// 1297     AT24CXX_Read((uint16_t)EPR_Z_MAX_ENDSTOP_INVERTING,&mksCfg.z_max_endstop_inverting,1);
        MOVS     R2,#+1
        ADD      R1,R5,#+740
        MOV      R0,#+1512
          CFI FunCall AT24CXX_Read
        BL       AT24CXX_Read
// 1298     AT24CXX_Read((uint16_t)EPR_Z_MIN_PROBE_ENDSTOP_INVERTING,&mksCfg.z_min_probe_endstop_inverting,1);
        MOVS     R2,#+1
        ADDW     R1,R5,#+741
        MOVW     R0,#+1513
          CFI FunCall AT24CXX_Read
        BL       AT24CXX_Read
// 1299     AT24CXX_Read((uint16_t)EPR_LCD_LANGUAGE,&mksCfg.lcd_language,1);
        MOVS     R2,#+1
        ADDW     R1,R5,#+742
        MOVW     R0,#+1514
          CFI FunCall AT24CXX_Read
        BL       AT24CXX_Read
// 1300 
// 1301 #if ENABLED(ULTRA_LCD)
// 1302 	Language_Load();
// 1303 #endif
// 1304 
// 1305     AT24CXX_Read((uint16_t)EPR_HOME_Y_BEFORE_X,&mksCfg.home_y_before_x,1);
        MOVS     R2,#+1
        ADDW     R1,R5,#+743
        MOVW     R0,#+1515
          CFI FunCall AT24CXX_Read
        BL       AT24CXX_Read
// 1306 
// 1307 	AT24CXX_Read((uint16_t)EPR_GRID_MAX_POINTS_X,&mksCfg.grid_max_points_x,1);
        MOVS     R2,#+1
        ADD      R1,R5,#+776
        MOVW     R0,#+1545
          CFI FunCall AT24CXX_Read
        BL       AT24CXX_Read
// 1308 	AT24CXX_Read((uint16_t)EPR_GRID_MAX_POINTS_Y,&mksCfg.grid_max_points_y,1);
        MOVS     R2,#+1
        ADDW     R1,R5,#+777
        MOVW     R0,#+1546
          CFI FunCall AT24CXX_Read
        BL       AT24CXX_Read
// 1309 	if(mksCfg.grid_max_points_x > GRID_MAX_POINTS_X_MAX) mksCfg.grid_max_points_x = GRID_MAX_POINTS_X_MAX;
        LDRB     R0,[R6, #+16]
        CMP      R0,#+13
        BLT.N    ??mksLoad_15
        MOVS     R0,#+12
        STRB     R0,[R6, #+16]
// 1310 	if(mksCfg.grid_max_points_y > GRID_MAX_POINTS_Y_MAX) mksCfg.grid_max_points_y = GRID_MAX_POINTS_Y_MAX;
??mksLoad_15:
        LDRB     R0,[R6, #+17]
        CMP      R0,#+13
        BLT.N    ??mksLoad_16
        MOVS     R0,#+12
        STRB     R0,[R6, #+17]
// 1311 	if(MACHINETPYE == DELTA)
??mksLoad_16:
        LDRSH    R0,[R6, #+8]
        CMP      R0,#+2
        BNE.N    ??mksLoad_17
// 1312 		{
// 1313 		if(mksCfg.grid_max_points_x%2 == 0) mksCfg.grid_max_points_x -= 1;//只能为奇数
        LDRB     R0,[R6, #+16]
        LSLS     R1,R0,#+31
        BMI.N    ??mksLoad_18
        SUBS     R0,R0,#+1
        STRB     R0,[R6, #+16]
// 1314 		if(mksCfg.grid_max_points_y%2 == 0) mksCfg.grid_max_points_y -= 1;
??mksLoad_18:
        LDRB     R0,[R6, #+17]
        LSLS     R1,R0,#+31
        BMI.N    ??mksLoad_19
        SUBS     R0,R0,#+1
        STRB     R0,[R6, #+17]
// 1315 		if(mksCfg.grid_max_points_x <3)	mksCfg.grid_max_points_x = 3;	// 不小于3点
??mksLoad_19:
        LDRB     R0,[R6, #+16]
        CMP      R0,#+3
        BGE.N    ??mksLoad_20
        MOVS     R0,#+3
        STRB     R0,[R6, #+16]
// 1316 		if(mksCfg.grid_max_points_y <3)	mksCfg.grid_max_points_y = 3;	
??mksLoad_20:
        LDRB     R0,[R6, #+17]
        CMP      R0,#+3
        BGE.N    ??mksLoad_17
        MOVS     R0,#+3
        STRB     R0,[R6, #+17]
// 1317 		}
// 1318 	//#error "GRID_MAX_POINTS_X and GRID_MAX_POINTS_Y must be less than 10 for MBL."
// 1319 	if(MESH_BED_LEVELING == MESH_BED_LEVELING)
// 1320 		{
// 1321 		if(mksCfg.grid_max_points_x > 9)	mksCfg.grid_max_points_x = 9;
??mksLoad_17:
        LDRB     R0,[R6, #+16]
        CMP      R0,#+10
        BLT.N    ??mksLoad_21
        MOVS     R0,#+9
        STRB     R0,[R6, #+16]
// 1322 		if(mksCfg.grid_max_points_y > 9)	mksCfg.grid_max_points_y = 9;
??mksLoad_21:
        LDRB     R0,[R6, #+17]
        CMP      R0,#+10
        BLT.N    ??mksLoad_22
        MOVS     R0,#+9
        STRB     R0,[R6, #+17]
// 1323 		}
// 1324 
// 1325 #if ENABLED(ULTRA_LCD)      
// 1326 	total_probe_points  = (GRID_MAX_POINTS_X) * (GRID_MAX_POINTS_Y);
// 1327 #endif        
// 1328 	AT24CXX_Read((uint16_t)EPR_MESH_INSET,&mksCfg.mesh_inst,1);
??mksLoad_22:
        MOVS     R2,#+1
        ADD      R1,R5,#+832
        MOVW     R0,#+1597
          CFI FunCall AT24CXX_Read
        BL       AT24CXX_Read
// 1329 	
// 1330 	mbl.meshInit();
          CFI FunCall _ZN17mesh_bed_leveling8meshInitEv
        BL       _ZN17mesh_bed_leveling8meshInitEv
// 1331 
// 1332 
// 1333 #if ENABLED(AUTO_BED_LEVELING_UBL)
// 1334 	ubl.state.active = false;
// 1335 	ubl.state.z_offset = 0.0;
// 1336 	ubl.state.eeprom_storage_slot = -1;
// 1337 #endif
// 1338 
// 1339 
// 1340 
// 1341     epr_read_data((int)EPR_DELTA_SMOOTH_ROD_OFFSET, (uint8_t*)&mksCfg.delta_smooth_rod_offset, sizeof(mksCfg.delta_smooth_rod_offset));
        MOVS     R2,#+4
        ADD      R1,R5,#+748
        MOVW     R0,#+1517
          CFI FunCall epr_read_data
        BL       epr_read_data
// 1342     epr_read_data((int)EPR_DELTA_EFFECTOR_OFFSET, (uint8_t*)&mksCfg.delta_effector_offset, sizeof(mksCfg.delta_effector_offset));
        MOVS     R2,#+4
        ADD      R1,R5,#+752
        MOVW     R0,#+1521
          CFI FunCall epr_read_data
        BL       epr_read_data
// 1343     epr_read_data((int)EPR_DELTA_CARRIAGE_OFFSET, (uint8_t*)&mksCfg.delta_carriage_offset, sizeof(mksCfg.delta_carriage_offset));
        MOVS     R2,#+4
        ADD      R1,R5,#+756
        MOVW     R0,#+1525
          CFI FunCall epr_read_data
        BL       epr_read_data
// 1344     epr_read_data((int)EPR_DELTA_HEIGHT, (uint8_t*)&mksCfg.delta_height, sizeof(mksCfg.delta_height));
        MOVS     R2,#+4
        MOV      R1,R6
        MOVW     R0,#+1529
          CFI FunCall epr_read_data
        BL       epr_read_data
// 1345     delta_height = mksCfg.delta_height;
        LDR      R0,[R5, #+760]
        LDR.W    R1,??DataTable247_35
        STR      R0,[R1, #+0]
// 1346     epr_read_data((int)EPR_DELTA_PRINTABLE_RADIUS, (uint8_t*)&mksCfg.delta_printable_radius, sizeof(mksCfg.delta_printable_radius));
        MOVS     R2,#+4
        ADD      R1,R5,#+764
        MOVW     R0,#+1533
          CFI FunCall epr_read_data
        BL       epr_read_data
// 1347 
// 1348 #if defined(MKS_ROBIN_LITE)
// 1349     epr_read_data((int)EPR_CURRENT_VREF_XY, (uint8_t*)&mksCfg.current_vref_xy, sizeof(mksCfg.current_vref_xy)); 
// 1350     TIM3->CCR3 = mksCfg.current_vref_xy < 1000 ? mksCfg.current_vref_xy*0.364:364;      //A4988,RS=0.2欧，XY限制最大电流为1A.
// 1351     
// 1352     epr_read_data((int)EPR_CURRENT_VREF_Z, (uint8_t*)&mksCfg.current_vref_z, sizeof(mksCfg.current_vref_z)); 
// 1353     TIM3->CCR2 = mksCfg.current_vref_z < 1000 ? mksCfg.current_vref_z*0.364:364;      //A4988,RS=0.2欧，Z限制最大电流为1A.
// 1354 	
// 1355     epr_read_data((int)EPR_CURRENT_VREF_E, (uint8_t*)&mksCfg.current_vref_e, sizeof(mksCfg.current_vref_e)); 
// 1356     TIM3->CCR1 = mksCfg.current_vref_e < 1000 ? mksCfg.current_vref_e*0.364:364;      //A4988,RS=0.2欧，E限制最大电流为1A.
// 1357 #endif
// 1358 
// 1359 	epr_read_data((int)EPR_Z_CLEARANCE_DEPLOY_PROBE, (uint8_t*)&mksCfg.z_clearance_deploy_probe, sizeof(mksCfg.z_clearance_deploy_probe));			if(mksCfg.z_clearance_deploy_probe <= 0.0)		mksCfg.z_clearance_deploy_probe   = 0.0001;
        MOVS     R2,#+4
        ADD      R1,R5,#+780
        MOVW     R0,#+1547
          CFI FunCall epr_read_data
        BL       epr_read_data
        LDR      R0,[R6, #+20]
        MOVS     R1,#+0
          CFI FunCall __aeabi_cfcmple
        BL       __aeabi_cfcmple
        BHI.N    ??mksLoad_23
        LDR.W    R0,??DataTable247_36  ;; 0x38d1b717
        STR      R0,[R6, #+20]
// 1360 	epr_read_data((int)EPR_Z_CLEARANCE_BETWEEN_PROBES, (uint8_t*)&mksCfg.z_clearance_between_probes, sizeof(mksCfg.z_clearance_between_probes));	if(mksCfg.z_clearance_between_probes <= 0.0)	mksCfg.z_clearance_between_probes = 0.0001;
??mksLoad_23:
        MOVS     R2,#+4
        ADD      R1,R5,#+784
        MOVW     R0,#+1551
          CFI FunCall epr_read_data
        BL       epr_read_data
        LDR      R0,[R6, #+24]
        MOVS     R1,#+0
          CFI FunCall __aeabi_cfcmple
        BL       __aeabi_cfcmple
        BHI.N    ??mksLoad_24
        LDR.W    R0,??DataTable247_36  ;; 0x38d1b717
        STR      R0,[R6, #+24]
// 1361 
// 1362 	epr_read_data((int)EPR_X_PROBE_OFFSET_FROM_EXTRUDER, (uint8_t*)&mksCfg.x_probe_offset_from_extruder, sizeof(mksCfg.x_probe_offset_from_extruder));	
??mksLoad_24:
        MOVS     R2,#+4
        ADD      R1,R5,#+788
        MOVW     R0,#+1555
          CFI FunCall epr_read_data
        BL       epr_read_data
// 1363 	epr_read_data((int)EPR_Y_PROBE_OFFSET_FROM_EXTRUDER, (uint8_t*)&mksCfg.y_probe_offset_from_extruder, sizeof(mksCfg.y_probe_offset_from_extruder));	
        MOVS     R2,#+4
        ADD      R1,R5,#+792
        MOVW     R0,#+1559
          CFI FunCall epr_read_data
        BL       epr_read_data
// 1364 
// 1365 	epr_read_data((int)EPR_XY_PROBE_SPEED, (uint8_t*)&mksCfg.xy_probe_speed, sizeof(mksCfg.xy_probe_speed));	
        MOVS     R2,#+4
        ADD      R1,R5,#+796
        MOVW     R0,#+1563
          CFI FunCall epr_read_data
        BL       epr_read_data
// 1366 	epr_read_data((int)EPR_Z_PROBE_SPEED_FAST, (uint8_t*)&mksCfg.z_probe_speed_fast, sizeof(mksCfg.z_probe_speed_fast));	
        MOVS     R2,#+4
        ADD      R1,R5,#+800
        MOVW     R0,#+1567
          CFI FunCall epr_read_data
        BL       epr_read_data
// 1367 	epr_read_data((int)EPR_Z_PROBE_SPEED_SLOW, (uint8_t*)&mksCfg.z_probe_speed_slow, sizeof(mksCfg.z_probe_speed_slow));	
        MOVS     R2,#+4
        ADD      R1,R5,#+804
        MOVW     R0,#+1571
          CFI FunCall epr_read_data
        BL       epr_read_data
// 1368 
// 1369 	xy_probe_feedrate_mm_s = MMM_TO_MMS(XY_PROBE_SPEED);
        LDR      R0,[R6, #+36]
        LDR.W    R1,??DataTable247_14  ;; 0x42700000
          CFI FunCall __aeabi_fdiv
        BL       __aeabi_fdiv
        LDR.W    R1,??DataTable247_26
        STR      R0,[R1, #+0]
// 1370 
// 1371 #if ENABLED(ULTRA_LCD)
// 1372 	manual_feedrate_mm_m[0] = 3000;
// 1373 	manual_feedrate_mm_m[1] = 3000;
// 1374 	manual_feedrate_mm_m[3] = 60;
// 1375 
// 1376 	if(MACHINETPYE == DELTA)
// 1377 		manual_feedrate_mm_m[2] = 3000;
// 1378 	else
// 1379 		manual_feedrate_mm_m[2] = 240;
// 1380 #endif
// 1381 
// 1382 	AT24CXX_Read((uint16_t)EPR_USE_XMIN_PLUG,&mksCfg.use_xmin_plug,1);
        MOVS     R2,#+1
        ADD      R1,R5,#+808
        MOVW     R0,#+1575
          CFI FunCall AT24CXX_Read
        BL       AT24CXX_Read
// 1383 	AT24CXX_Read((uint16_t)EPR_USE_YMIN_PLUG,&mksCfg.use_ymin_plug,1);
        MOVS     R2,#+1
        ADDW     R1,R5,#+809
        MOV      R0,#+1576
          CFI FunCall AT24CXX_Read
        BL       AT24CXX_Read
// 1384 	AT24CXX_Read((uint16_t)EPR_USE_ZMIN_PLUG,&mksCfg.use_zmin_plug,1);
        MOVS     R2,#+1
        ADDW     R1,R5,#+810
        MOVW     R0,#+1577
          CFI FunCall AT24CXX_Read
        BL       AT24CXX_Read
// 1385 	AT24CXX_Read((uint16_t)EPR_USE_XMAX_PLUG,&mksCfg.use_xmax_plug,1);
        MOVS     R2,#+1
        ADDW     R1,R5,#+811
        MOVW     R0,#+1578
          CFI FunCall AT24CXX_Read
        BL       AT24CXX_Read
// 1386 	AT24CXX_Read((uint16_t)EPR_USE_YMAX_PLUG,&mksCfg.use_ymax_plug,1);
        MOVS     R2,#+1
        ADD      R1,R5,#+812
        MOVW     R0,#+1579
          CFI FunCall AT24CXX_Read
        BL       AT24CXX_Read
// 1387 	AT24CXX_Read((uint16_t)EPR_USE_ZMAX_PLUG,&mksCfg.use_zmax_plug,1);
        MOVS     R2,#+1
        ADDW     R1,R5,#+813
        MOVW     R0,#+1580
          CFI FunCall AT24CXX_Read
        BL       AT24CXX_Read
// 1388 
// 1389 
// 1390 	epr_read_data((int)EPR_LEFT_PROBE_BED_POSITION, (uint8_t*)&mksCfg.left_probe_bed_position, sizeof(mksCfg.left_probe_bed_position));	
        MOVS     R2,#+4
        ADD      R1,R5,#+816
        MOVW     R0,#+1581
          CFI FunCall epr_read_data
        BL       epr_read_data
// 1391 	epr_read_data((int)EPR_RIGHT_PROBE_BED_POSITION, (uint8_t*)&mksCfg.right_probe_bed_position, sizeof(mksCfg.right_probe_bed_position));	
        MOVS     R2,#+4
        ADD      R1,R5,#+820
        MOVW     R0,#+1585
          CFI FunCall epr_read_data
        BL       epr_read_data
// 1392 	epr_read_data((int)EPR_FRONT_PROBE_BED_POSITION, (uint8_t*)&mksCfg.front_probe_bed_position, sizeof(mksCfg.front_probe_bed_position));	
        MOVS     R2,#+4
        ADD      R1,R5,#+824
        MOVW     R0,#+1589
          CFI FunCall epr_read_data
        BL       epr_read_data
// 1393 	epr_read_data((int)EPR_BACK_PROBE_BED_POSITION, (uint8_t*)&mksCfg.back_probe_bed_position, sizeof(mksCfg.back_probe_bed_position));	
        MOVS     R2,#+4
        ADD      R1,R5,#+828
        MOVW     R0,#+1593
          CFI FunCall epr_read_data
        BL       epr_read_data
// 1394 	if(mksCfg.left_probe_bed_position > mksCfg.right_probe_bed_position)	
        LDR      R0,[R6, #+60]
        LDR      R1,[R6, #+56]
          CFI FunCall __aeabi_cfcmple
        BL       __aeabi_cfcmple
        BCS.N    ??mksLoad_25
// 1395 		mksSwap(&mksCfg.left_probe_bed_position,&mksCfg.right_probe_bed_position);
        ADD      R1,R5,#+820
        ADD      R0,R5,#+816
          CFI FunCall _Z7mksSwapPfS_
        BL       _Z7mksSwapPfS_
// 1396 	if(mksCfg.front_probe_bed_position > mksCfg.back_probe_bed_position)	
??mksLoad_25:
        LDR      R0,[R6, #+68]
        LDR      R1,[R6, #+64]
          CFI FunCall __aeabi_cfcmple
        BL       __aeabi_cfcmple
        BCS.N    ??mksLoad_26
// 1397 		mksSwap(&mksCfg.front_probe_bed_position,&mksCfg.back_probe_bed_position);
        ADD      R1,R5,#+828
        ADD      R0,R5,#+824
          CFI FunCall _Z7mksSwapPfS_
        BL       _Z7mksSwapPfS_
// 1398 
// 1399 		if(MACHINETPYE == DELTA)
??mksLoad_26:
        LDR      R10,[R5, #+688]
        LDR.W    R9,??DataTable247_28
        LDRSH    R0,[R6, #+8]
        CMP      R0,#+2
        BNE.N    ??mksLoad_27
// 1400 			{
// 1401 			MIN_PROBE_X = X_MIN_POS;
        STR      R10,[R9, #+0]
// 1402 			MAX_PROBE_X = X_MAX_POS;
        LDR      R0,[R4, #+12]
        STR      R0,[R9, #+4]
// 1403 			MIN_PROBE_Y = Y_MIN_POS;
        LDR      R0,[R4, #+4]
        STR      R0,[R9, #+8]
// 1404 			MAX_PROBE_Y = Y_MAX_POS;
        LDR      R0,[R4, #+16]
        STR      R0,[R9, #+12]
        B.N      ??mksLoad_28
// 1405 			}
// 1406 		else
// 1407 			{
// 1408 			MIN_PROBE_X = max(X_MIN_POS, X_MIN_POS + X_PROBE_OFFSET_FROM_EXTRUDER);
??mksLoad_27:
        LDR      R1,[R6, #+28]
        MOV      R0,R10
          CFI FunCall __aeabi_fadd
        BL       __aeabi_fadd
        MOV      R1,R10
          CFI FunCall __aeabi_cfcmple
        BL       __aeabi_cfcmple
        BCC.N    ??mksLoad_29
        MOV      R10,R0
??mksLoad_29:
        STR      R10,[R9, #+0]
// 1409 			MAX_PROBE_X = min(X_MAX_POS, X_MAX_POS + X_PROBE_OFFSET_FROM_EXTRUDER);
        LDR      R10,[R4, #+12]
        LDR      R1,[R6, #+28]
        MOV      R0,R10
          CFI FunCall __aeabi_fadd
        BL       __aeabi_fadd
        MOV      R1,R0
        MOV      R0,R10
          CFI FunCall __aeabi_cfcmple
        BL       __aeabi_cfcmple
        BCC.N    ??mksLoad_30
        MOV      R10,R1
??mksLoad_30:
        STR      R10,[R9, #+4]
// 1410 			MIN_PROBE_Y = max(Y_MIN_POS, Y_MIN_POS + Y_PROBE_OFFSET_FROM_EXTRUDER);
        LDR      R10,[R4, #+4]
        LDR      R1,[R6, #+32]
        MOV      R0,R10
          CFI FunCall __aeabi_fadd
        BL       __aeabi_fadd
        MOV      R1,R10
          CFI FunCall __aeabi_cfcmple
        BL       __aeabi_cfcmple
        BCC.N    ??mksLoad_31
        MOV      R10,R0
??mksLoad_31:
        STR      R10,[R9, #+8]
// 1411 			MAX_PROBE_Y = min(Y_MAX_POS, Y_MAX_POS + Y_PROBE_OFFSET_FROM_EXTRUDER);
        LDR      R4,[R4, #+16]
        LDR      R1,[R6, #+32]
        MOV      R0,R4
          CFI FunCall __aeabi_fadd
        BL       __aeabi_fadd
        MOV      R1,R0
        MOV      R0,R4
          CFI FunCall __aeabi_cfcmple
        BL       __aeabi_cfcmple
        BCC.N    ??mksLoad_32
        MOV      R4,R1
??mksLoad_32:
        STR      R4,[R9, #+12]
// 1412 			}
// 1413 		if(mksCfg.left_probe_bed_position < MIN_PROBE_X)	mksCfg.left_probe_bed_position = MIN_PROBE_X + 10;
??mksLoad_28:
        LDR      R4,[R9, #+0]
        LDR      R0,[R6, #+56]
        MOV      R1,R4
          CFI FunCall __aeabi_cfcmple
        BL       __aeabi_cfcmple
        BCS.N    ??mksLoad_33
        LDR.N    R1,??DataTable247_37  ;; 0x41200000
        MOV      R0,R4
          CFI FunCall __aeabi_fadd
        BL       __aeabi_fadd
        STR      R0,[R6, #+56]
// 1414 		if(mksCfg.right_probe_bed_position > MAX_PROBE_X)	mksCfg.left_probe_bed_position = MAX_PROBE_X - 10;
??mksLoad_33:
        LDR      R0,[R9, #+4]
        LDR      R1,[R6, #+60]
          CFI FunCall __aeabi_cfcmple
        BL       __aeabi_cfcmple
        BCS.N    ??mksLoad_34
        LDR.N    R1,??DataTable247_38  ;; 0xc1200000
          CFI FunCall __aeabi_fadd
        BL       __aeabi_fadd
        STR      R0,[R6, #+56]
// 1415 		if(mksCfg.front_probe_bed_position < MIN_PROBE_Y)	mksCfg.left_probe_bed_position = MAX_PROBE_Y + 10;
??mksLoad_34:
        LDR      R0,[R6, #+64]
        LDR      R1,[R9, #+8]
          CFI FunCall __aeabi_cfcmple
        BL       __aeabi_cfcmple
        BCS.N    ??mksLoad_35
        LDR      R0,[R9, #+12]
        LDR.N    R1,??DataTable247_37  ;; 0x41200000
          CFI FunCall __aeabi_fadd
        BL       __aeabi_fadd
        STR      R0,[R6, #+56]
// 1416 		if(mksCfg.back_probe_bed_position > MAX_PROBE_Y)	mksCfg.left_probe_bed_position = MAX_PROBE_Y - 10;
??mksLoad_35:
        LDR      R0,[R9, #+12]
        LDR      R1,[R6, #+68]
          CFI FunCall __aeabi_cfcmple
        BL       __aeabi_cfcmple
        BCS.N    ??mksLoad_36
        LDR.N    R1,??DataTable247_38  ;; 0xc1200000
          CFI FunCall __aeabi_fadd
        BL       __aeabi_fadd
        STR      R0,[R6, #+56]
// 1417 
// 1418     
// 1419 	if(MACHINETPYE&IS_CORE)
??mksLoad_36:
        LDRSH    R0,[R6, #+8]
        MOVS     R1,#+252
        TST      R0,R1
        BEQ.N    ??mksLoad_37
// 1420 		{
// 1421 		if(MACHINETPYE & CORE_IS_XY)
        MOVS     R1,#+12
        TST      R0,R1
        BEQ.N    ??mksLoad_38
// 1422 			{
// 1423 			CORE_AXIS_1 = A_AXIS;
        MOVS     R0,#+0
        STRB     R0,[R9, #+16]
// 1424 			CORE_AXIS_2 = B_AXIS;
        MOVS     R0,#+1
        STRB     R0,[R9, #+17]
// 1425 			NORMAL_AXIS = Z_AXIS;
        MOVS     R0,#+2
        STRB     R0,[R9, #+18]
        B.N      ??mksLoad_37
// 1426 			}
// 1427 		else if(MACHINETPYE & CORE_IS_XZ)
??mksLoad_38:
        MOVS     R1,#+48
        TST      R0,R1
        BEQ.N    ??mksLoad_39
// 1428 			{
// 1429 			CORE_AXIS_1 = A_AXIS;
        MOVS     R0,#+0
        STRB     R0,[R9, #+16]
// 1430 			NORMAL_AXIS = Y_AXIS;
        MOVS     R0,#+1
        STRB     R0,[R9, #+18]
// 1431 			CORE_AXIS_2 = C_AXIS;
        MOVS     R0,#+2
        STRB     R0,[R9, #+17]
        B.N      ??mksLoad_37
// 1432 			}
// 1433 		else if(MACHINETPYE & CORE_IS_YZ)
??mksLoad_39:
        MOVS     R1,#+192
        TST      R0,R1
        BEQ.N    ??mksLoad_37
// 1434 			{
// 1435 			NORMAL_AXIS = X_AXIS;
        MOVS     R0,#+0
        STRB     R0,[R9, #+18]
// 1436 			CORE_AXIS_1 = B_AXIS;
        MOVS     R0,#+1
        STRB     R0,[R9, #+16]
// 1437 			CORE_AXIS_2 = C_AXIS;
        MOVS     R0,#+2
        STRB     R0,[R9, #+17]
// 1438 			}
// 1439 		}
// 1440 
// 1441 	
// 1442 
// 1443 	AT24CXX_Read((uint16_t)EPR_Z_MIN_PROBE_PIN_MODE,&mksCfg.z_min_probe_pin_mode,1);
??mksLoad_37:
        MOVS     R2,#+1
        ADDW     R1,R5,#+833
        MOVW     R0,#+1598
          CFI FunCall AT24CXX_Read
        BL       AT24CXX_Read
// 1444 
// 1445 	epr_read_data((int)EPR_ABL_PROBE_PT_1_X, (uint8_t*)&mksCfg.abl_probe_pt1_x, sizeof(mksCfg.abl_probe_pt1_x)); 
        MOVS     R2,#+4
        ADD      R1,R5,#+836
        MOVW     R0,#+1599
          CFI FunCall epr_read_data
        BL       epr_read_data
// 1446 	epr_read_data((int)EPR_ABL_PROBE_PT_1_Y, (uint8_t*)&mksCfg.abl_probe_pt1_y, sizeof(mksCfg.abl_probe_pt1_y)); 
        MOVS     R2,#+4
        ADD      R1,R5,#+840
        MOVW     R0,#+1603
          CFI FunCall epr_read_data
        BL       epr_read_data
// 1447 	epr_read_data((int)EPR_ABL_PROBE_PT_2_X, (uint8_t*)&mksCfg.abl_probe_pt2_x, sizeof(mksCfg.abl_probe_pt2_x)); 
        MOVS     R2,#+4
        ADD      R1,R5,#+844
        MOVW     R0,#+1607
          CFI FunCall epr_read_data
        BL       epr_read_data
// 1448 	epr_read_data((int)EPR_ABL_PROBE_PT_2_Y, (uint8_t*)&mksCfg.abl_probe_pt2_y, sizeof(mksCfg.abl_probe_pt2_y)); 
        MOVS     R2,#+4
        ADD      R1,R5,#+848
        MOVW     R0,#+1611
          CFI FunCall epr_read_data
        BL       epr_read_data
// 1449 	epr_read_data((int)EPR_ABL_PROBE_PT_3_X, (uint8_t*)&mksCfg.abl_probe_pt3_x, sizeof(mksCfg.abl_probe_pt3_x)); 
        MOVS     R2,#+4
        ADD      R1,R5,#+852
        MOVW     R0,#+1615
          CFI FunCall epr_read_data
        BL       epr_read_data
// 1450 	epr_read_data((int)EPR_ABL_PROBE_PT_3_Y, (uint8_t*)&mksCfg.abl_probe_pt3_y, sizeof(mksCfg.abl_probe_pt3_y)); 
        MOVS     R2,#+4
        ADD      R1,R5,#+856
        MOVW     R0,#+1619
          CFI FunCall epr_read_data
        BL       epr_read_data
// 1451 
// 1452 	planner.init();
        LDR.N    R0,??DataTable247_29
          CFI FunCall _ZN7Planner4initEv
        BL       _ZN7Planner4initEv
// 1453 
// 1454 
// 1455 	epr_read_data((int)EPR_UBL_MESH_INSET, (uint8_t*)&mksCfg.ubl_mesh_inset, sizeof(mksCfg.ubl_mesh_inset)); 
        MOVS     R2,#+2
        ADD      R1,R5,#+860
        MOVW     R0,#+1623
          CFI FunCall epr_read_data
        BL       epr_read_data
// 1456 	epr_read_data((int)EPR_UBL_PROBE_PT_1_X, (uint8_t*)&mksCfg.ubl_probe_pt_1_x, sizeof(mksCfg.ubl_probe_pt_1_x)); 
        MOVS     R2,#+4
        ADD      R1,R5,#+864
        MOVW     R0,#+1625
          CFI FunCall epr_read_data
        BL       epr_read_data
// 1457 	epr_read_data((int)EPR_UBL_PROBE_PT_1_Y, (uint8_t*)&mksCfg.ubl_probe_pt_1_y, sizeof(mksCfg.ubl_probe_pt_1_y)); 
        MOVS     R2,#+4
        ADD      R1,R5,#+868
        MOVW     R0,#+1629
          CFI FunCall epr_read_data
        BL       epr_read_data
// 1458 	epr_read_data((int)EPR_UBL_PROBE_PT_2_X, (uint8_t*)&mksCfg.ubl_probe_pt_2_x, sizeof(mksCfg.ubl_probe_pt_2_x)); 
        MOVS     R2,#+4
        ADD      R1,R5,#+872
        MOVW     R0,#+1633
          CFI FunCall epr_read_data
        BL       epr_read_data
// 1459 	epr_read_data((int)EPR_UBL_PROBE_PT_2_Y, (uint8_t*)&mksCfg.ubl_probe_pt_2_y, sizeof(mksCfg.ubl_probe_pt_2_y)); 
        MOVS     R2,#+4
        ADD      R1,R5,#+876
        MOVW     R0,#+1637
          CFI FunCall epr_read_data
        BL       epr_read_data
// 1460 	epr_read_data((int)EPR_UBL_PROBE_PT_3_X, (uint8_t*)&mksCfg.ubl_probe_pt_3_x, sizeof(mksCfg.ubl_probe_pt_3_x)); 
        MOVS     R2,#+4
        ADD      R1,R5,#+880
        MOVW     R0,#+1641
          CFI FunCall epr_read_data
        BL       epr_read_data
// 1461 	epr_read_data((int)EPR_UBL_PROBE_PT_3_Y, (uint8_t*)&mksCfg.ubl_probe_pt_3_y, sizeof(mksCfg.ubl_probe_pt_3_y)); 
        MOVS     R2,#+4
        ADD      R1,R5,#+884
        MOVW     R0,#+1645
          CFI FunCall epr_read_data
        BL       epr_read_data
// 1462 
// 1463 	ubl.mesh_index_to_xypos_init();
          CFI FunCall _ZN20unified_bed_leveling24mesh_index_to_xypos_initEv
        BL       _ZN20unified_bed_leveling24mesh_index_to_xypos_initEv
// 1464 
// 1465 	AT24CXX_Read((uint16_t)EPR_FIL_RUNOUT_INVERTING,&mksCfg.fil_runout_inverting,1);
        MOVS     R2,#+1
        ADD      R1,R5,#+888
        MOVW     R0,#+1649
          CFI FunCall AT24CXX_Read
        BL       AT24CXX_Read
// 1466 
// 1467 	epr_read_data((int)EPR_FILAMENT_CHANGE_X_POS, (uint8_t*)&mksCfg.filament_change_x_pos, sizeof(mksCfg.filament_change_x_pos)); 
        MOVS     R2,#+4
        ADD      R1,R5,#+892
        MOVW     R0,#+1650
          CFI FunCall epr_read_data
        BL       epr_read_data
// 1468 	epr_read_data((int)EPR_FILAMENT_CHANGE_Y_POS, (uint8_t*)&mksCfg.filament_change_y_pos, sizeof(mksCfg.filament_change_y_pos)); 
        MOVS     R2,#+4
        ADD      R1,R5,#+896
        MOVW     R0,#+1654
          CFI FunCall epr_read_data
        BL       epr_read_data
// 1469 	epr_read_data((int)EPR_FILAMENT_CHANGE_Z_ADD, (uint8_t*)&mksCfg.filament_change_z_add, sizeof(mksCfg.filament_change_z_add)); 
        MOVS     R2,#+4
        ADD      R1,R5,#+900
        MOVW     R0,#+1658
          CFI FunCall epr_read_data
        BL       epr_read_data
// 1470 
// 1471 	epr_read_data((int)EPR_ZERO_X_POS, (uint8_t*)&mksReprint.mks_zero_x, sizeof(mksReprint.mks_zero_x)); 
        LDR.N    R4,??DataTable247_30
        MOVS     R2,#+4
        ADD      R1,R4,#+172
        MOVW     R0,#+1846
          CFI FunCall epr_read_data
        BL       epr_read_data
// 1472 	epr_read_data((int)EPR_ZERO_Y_POS, (uint8_t*)&mksReprint.mks_zero_y, sizeof(mksReprint.mks_zero_y)); 
        MOVS     R2,#+4
        ADD      R1,R4,#+176
        MOVW     R0,#+1850
          CFI FunCall epr_read_data
        BL       epr_read_data
// 1473 	
// 1474 //THERMAL_PROTECTION_PERIOD
// 1475 	epr_read_data((int)EPR_THERMAL_PROTECTION_PERIOD, (uint8_t*)&mksCfg.thermal_protection_period, sizeof(mksCfg.thermal_protection_period)); 
        MOVS     R2,#+2
        ADD      R1,R5,#+904
        MOVW     R0,#+1662
          CFI FunCall epr_read_data
        BL       epr_read_data
// 1476 	epr_read_data((int)EPR_THERMAL_PROTECTION_HYSTERESIS, (uint8_t*)&mksCfg.thermal_protection_hysteresis, sizeof(mksCfg.thermal_protection_hysteresis)); 
        MOVS     R2,#+1
        ADDW     R1,R5,#+906
        MOV      R0,#+1664
          CFI FunCall epr_read_data
        BL       epr_read_data
// 1477 	epr_read_data((int)EPR_WATCH_TEMP_PERIOD, (uint8_t*)&mksCfg.watch_temp_period, sizeof(mksCfg.watch_temp_period)); 
        MOVS     R2,#+2
        ADD      R1,R5,#+908
        MOVW     R0,#+1665
          CFI FunCall epr_read_data
        BL       epr_read_data
// 1478 	epr_read_data((int)EPR_WATCH_TEMP_INCREASE, (uint8_t*)&mksCfg.watch_temp_increase, sizeof(mksCfg.watch_temp_increase)); 
        MOVS     R2,#+1
        ADDW     R1,R5,#+910
        MOVW     R0,#+1667
          CFI FunCall epr_read_data
        BL       epr_read_data
// 1479 
// 1480 //THERMAL_PROTECTION_BED_PERIOD
// 1481 	epr_read_data((int)EPR_THERMAL_PROTECTION_BED_PERIOD, (uint8_t*)&mksCfg.thermal_protection_bed_period, sizeof(mksCfg.thermal_protection_bed_period)); 
        MOVS     R2,#+2
        ADD      R1,R5,#+912
        MOVW     R0,#+1668
          CFI FunCall epr_read_data
        BL       epr_read_data
// 1482 	epr_read_data((int)EPR_THERMAL_PROTECTION_BED_HYSTERESIS, (uint8_t*)&mksCfg.thermal_protection_bed_hysteresis, sizeof(mksCfg.thermal_protection_bed_hysteresis)); 
        MOVS     R2,#+1
        ADDW     R1,R5,#+914
        MOVW     R0,#+1670
          CFI FunCall epr_read_data
        BL       epr_read_data
// 1483 	epr_read_data((int)EPR_WATCH_BED_TEMP_PERIOD, (uint8_t*)&mksCfg.watch_bed_temp_period, sizeof(mksCfg.watch_bed_temp_period)); 
        MOVS     R2,#+2
        ADD      R1,R5,#+916
        MOVW     R0,#+1671
          CFI FunCall epr_read_data
        BL       epr_read_data
// 1484 	epr_read_data((int)EPR_WATCH_BED_TEMP_INCREASE, (uint8_t*)&mksCfg.watch_bed_temp_increase, sizeof(mksCfg.watch_bed_temp_increase)); 
        MOVS     R2,#+1
        ADDW     R1,R5,#+918
        MOVW     R0,#+1673
          CFI FunCall epr_read_data
        BL       epr_read_data
// 1485 
// 1486 	//HOTEND_OFFSET_X
// 1487 	epr_read_data((int)EPR_HOTEND_OFFSET_X, (uint8_t*)&mksCfg.hotnd_offset_x, sizeof(mksCfg.hotnd_offset_x)); 
        MOVS     R2,#+4
        ADD      R1,R5,#+928
        MOVW     R0,#+1681
          CFI FunCall epr_read_data
        BL       epr_read_data
// 1488 	epr_read_data((int)EPR_HOTEND_OFFSET_Y, (uint8_t*)&mksCfg.hotnd_offset_y, sizeof(mksCfg.hotnd_offset_y)); 
        MOVS     R2,#+4
        ADD      R1,R5,#+932
        MOVW     R0,#+1685
          CFI FunCall epr_read_data
        BL       epr_read_data
// 1489 
// 1490 	//BLTOUCH
// 1491 	AT24CXX_Read((uint16_t)EPR_MKSTOUCH,&mksCfg.mkstouch,1);
        MOVS     R2,#+1
        ADD      R1,R5,#+936
